0000 0000 JMP    $0200   	.....  A $00 B $00 C $00 D $00 E $00 H $00 L $00 SP 0000
0000 0200 DI             	.....  A $00 B $00 C $00 D $00 E $00 H $00 L $00 SP 0000
0000 0201 LXI    H,#$0300	.....  A $00 B $00 C $00 D $00 E $00 H $03 L $00 SP 0000
0000 0204 LXI    B,#$0200	.....  A $00 B $02 C $00 D $00 E $00 H $03 L $00 SP 0000
0000 0207 MOV    M,B     	.....  A $00 B $02 C $00 D $00 E $00 H $03 L $00 SP 0000
0000 0208 INX    H       	.....  A $00 B $02 C $00 D $00 E $00 H $03 L $01 SP 0000
0000 0209 MOV    M,C     	.....  A $00 B $02 C $00 D $00 E $00 H $03 L $01 SP 0000
0000 020a INX    H       	.....  A $00 B $02 C $00 D $00 E $00 H $03 L $02 SP 0000
0000 020b MOV    M,C     	.....  A $00 B $02 C $00 D $00 E $00 H $03 L $02 SP 0000
0000 020c INX    H       	.....  A $00 B $02 C $00 D $00 E $00 H $03 L $03 SP 0000
0000 020d LXI    D,#$0000	.....  A $00 B $02 C $00 D $00 E $00 H $03 L $03 SP 0000
0000 0210 MOV    M,D     	.....  A $00 B $02 C $00 D $00 E $00 H $03 L $03 SP 0000
0000 0211 INX    H       	.....  A $00 B $02 C $00 D $00 E $00 H $03 L $04 SP 0000
0000 0212 MOV    M.E     	.....  A $00 B $02 C $00 D $00 E $00 H $03 L $04 SP 0000
0000 0213 LXI    H,#$03ff	.....  A $00 B $02 C $00 D $00 E $00 H $03 L $ff SP 0000
0000 0216 SPHL           	.....  A $00 B $02 C $00 D $00 E $00 H $03 L $ff SP 03ff
0000 0217 EI             	.....  A $00 B $02 C $00 D $00 E $00 H $03 L $ff SP 03ff
0000 0218 LXI    H,#$0006	.....  A $00 B $02 C $00 D $00 E $00 H $00 L $06 SP 03ff
0000 021b PUSH   H       	.....  A $00 B $02 C $00 D $00 E $00 H $00 L $06 SP 03fd
0000 021c LXI    H,#$000f	.....  A $00 B $02 C $00 D $00 E $00 H $00 L $0f SP 03fd
0000 021f PUSH   H       	.....  A $00 B $02 C $00 D $00 E $00 H $00 L $0f SP 03fb
0000 0220 LXI    H,#$001b	.....  A $00 B $02 C $00 D $00 E $00 H $00 L $1b SP 03fb
0000 0223 PUSH   H       	.....  A $00 B $02 C $00 D $00 E $00 H $00 L $1b SP 03f9
0000 0224 MVI    B,#$01  	.....  A $00 B $01 C $00 D $00 E $00 H $00 L $1b SP 03f9
0000 0226 MVI    A,#$03  	.....  A $03 B $01 C $00 D $00 E $00 H $00 L $1b SP 03f9
Interrupt: 81
	.....  A $03 B $01 C $00 D $00 E $00 H $00 L $1b SP 03f7
0000 0028 DI             	.....  A $03 B $01 C $00 D $00 E $00 H $00 L $1b SP 03f7
0000 0029 LXI    H,#$010a	.....  A $03 B $01 C $00 D $00 E $00 H $01 L $0a SP 03f7
0000 002c MOV    B,M     	.....  A $03 B $02 C $00 D $00 E $00 H $01 L $0a SP 03f7
0000 002d LDA    $010c   	.....  A $00 B $02 C $00 D $00 E $00 H $01 L $0a SP 03f7
0000 0030 ADD    B       	.....  A $02 B $02 C $00 D $00 E $00 H $01 L $0a SP 03f7
0000 0031 MOV    B,A     	.....  A $02 B $02 C $00 D $00 E $00 H $01 L $0a SP 03f7
0000 0032 MVI    C,#$ff  	.....  A $02 B $02 C $ff D $00 E $00 H $01 L $0a SP 03f7
0000 0034 INX    B       	.....  A $02 B $03 C $00 D $00 E $00 H $01 L $0a SP 03f7
0000 0035 MOV    H,B     	.....  A $02 B $03 C $00 D $00 E $00 H $03 L $0a SP 03f7
0000 0036 MOV    L,C     	.....  A $02 B $03 C $00 D $00 E $00 H $03 L $00 SP 03f7
0000 0037 MOV    B,M     	.....  A $02 B $02 C $00 D $00 E $00 H $03 L $00 SP 03f7
0000 0038 INX    H       	.....  A $02 B $02 C $00 D $00 E $00 H $03 L $01 SP 03f7
0000 0039 MOV    C,M     	.....  A $02 B $02 C $00 D $00 E $00 H $03 L $01 SP 03f7
0000 003a PUSH   B       	.....  A $02 B $02 C $00 D $00 E $00 H $03 L $01 SP 03f5
0000 003b INX    H       	.....  A $02 B $02 C $00 D $00 E $00 H $03 L $02 SP 03f5
0000 003c INX    H       	.....  A $02 B $02 C $00 D $00 E $00 H $03 L $03 SP 03f5
0000 003d INX    H       	.....  A $02 B $02 C $00 D $00 E $00 H $03 L $04 SP 03f5
0000 003e INX    H       	.....  A $02 B $02 C $00 D $00 E $00 H $03 L $05 SP 03f5
0000 003f LDA    $0100   	.....  A $03 B $02 C $00 D $00 E $00 H $03 L $05 SP 03f5
0000 0042 MOV    M,A     	.....  A $03 B $02 C $00 D $00 E $00 H $03 L $05 SP 03f5
0000 0043 INX    H       	.....  A $03 B $02 C $00 D $00 E $00 H $03 L $06 SP 03f5
0000 0044 LDA    $0101   	.....  A $01 B $02 C $00 D $00 E $00 H $03 L $06 SP 03f5
0000 0047 MOV    M,A     	.....  A $01 B $02 C $00 D $00 E $00 H $03 L $06 SP 03f5
0000 0048 INX    H       	.....  A $01 B $02 C $00 D $00 E $00 H $03 L $07 SP 03f5
0000 0049 LDA    $0102   	.....  A $00 B $02 C $00 D $00 E $00 H $03 L $07 SP 03f5
0000 004c MOV    M,A     	.....  A $00 B $02 C $00 D $00 E $00 H $03 L $07 SP 03f5
0000 004d INX    H       	.....  A $00 B $02 C $00 D $00 E $00 H $03 L $08 SP 03f5
0000 004e LDA    $0103   	.....  A $00 B $02 C $00 D $00 E $00 H $03 L $08 SP 03f5
0000 0051 MOV    M,A     	.....  A $00 B $02 C $00 D $00 E $00 H $03 L $08 SP 03f5
0000 0052 INX    H       	.....  A $00 B $02 C $00 D $00 E $00 H $03 L $09 SP 03f5
0000 0053 LDA    $0104   	.....  A $00 B $02 C $00 D $00 E $00 H $03 L $09 SP 03f5
0000 0056 MOV    M,A     	.....  A $00 B $02 C $00 D $00 E $00 H $03 L $09 SP 03f5
0000 0057 INX    H       	.....  A $00 B $02 C $00 D $00 E $00 H $03 L $0a SP 03f5
0000 0058 LDA    $0105   	.....  A $00 B $02 C $00 D $00 E $00 H $03 L $0a SP 03f5
0000 005b MOV    M,A     	.....  A $00 B $02 C $00 D $00 E $00 H $03 L $0a SP 03f5
0000 005c INX    H       	.....  A $00 B $02 C $00 D $00 E $00 H $03 L $0b SP 03f5
0000 005d LDA    $0106   	.....  A $1b B $02 C $00 D $00 E $00 H $03 L $0b SP 03f5
0000 0060 MOV    M,A     	.....  A $1b B $02 C $00 D $00 E $00 H $03 L $0b SP 03f5
0000 0061 INX    H       	.....  A $1b B $02 C $00 D $00 E $00 H $03 L $0c SP 03f5
0000 0062 LDA    $0107   	.....  A $f9 B $02 C $00 D $00 E $00 H $03 L $0c SP 03f5
0000 0065 MOV    M,A     	.....  A $f9 B $02 C $00 D $00 E $00 H $03 L $0c SP 03f5
0000 0066 INX    H       	.....  A $f9 B $02 C $00 D $00 E $00 H $03 L $0d SP 03f5
0000 0067 LDA    $0108   	.....  A $03 B $02 C $00 D $00 E $00 H $03 L $0d SP 03f5
0000 006a MOV    M,A     	.....  A $03 B $02 C $00 D $00 E $00 H $03 L $0d SP 03f5
0000 006b INX    H       	.....  A $03 B $02 C $00 D $00 E $00 H $03 L $0e SP 03f5
0000 006c LDA    $0109   	.....  A $28 B $02 C $00 D $00 E $00 H $03 L $0e SP 03f5
0000 006f MOV    M,A     	.....  A $28 B $02 C $00 D $00 E $00 H $03 L $0e SP 03f5
0000 0070 INX    H       	.....  A $28 B $02 C $00 D $00 E $00 H $03 L $0f SP 03f5
0000 0071 LDA    $010a   	.....  A $02 B $02 C $00 D $00 E $00 H $03 L $0f SP 03f5
0000 0074 MOV    M,A     	.....  A $02 B $02 C $00 D $00 E $00 H $03 L $0f SP 03f5
0000 0075 INX    H       	.....  A $02 B $02 C $00 D $00 E $00 H $03 L $10 SP 03f5
0000 0076 LDA    $010b   	.....  A $00 B $02 C $00 D $00 E $00 H $03 L $10 SP 03f5
0000 0079 MOV    M,A     	.....  A $00 B $02 C $00 D $00 E $00 H $03 L $10 SP 03f5
0000 007a INX    H       	.....  A $00 B $02 C $00 D $00 E $00 H $03 L $11 SP 03f5
0000 007b LDA    $010c   	.....  A $00 B $02 C $00 D $00 E $00 H $03 L $11 SP 03f5
0000 007e MOV    M,A     	.....  A $00 B $02 C $00 D $00 E $00 H $03 L $11 SP 03f5
0000 007f INX    H       	.....  A $00 B $02 C $00 D $00 E $00 H $03 L $12 SP 03f5
0000 0080 LDA    $010d   	.....  A $00 B $02 C $00 D $00 E $00 H $03 L $12 SP 03f5
0000 0083 MOV    M,A     	.....  A $00 B $02 C $00 D $00 E $00 H $03 L $12 SP 03f5
0000 0084 POP    H       	.....  A $00 B $02 C $00 D $00 E $00 H $02 L $00 SP 03f7
0000 0085 INR    H       	..p..  A $00 B $02 C $00 D $00 E $00 H $03 L $00 SP 03f7
0000 0086 INX    H       	..p..  A $00 B $02 C $00 D $00 E $00 H $03 L $01 SP 03f7
0000 0087 INX    H       	..p..  A $00 B $02 C $00 D $00 E $00 H $03 L $02 SP 03f7
0000 0088 INX    H       	..p..  A $00 B $02 C $00 D $00 E $00 H $03 L $03 SP 03f7
0000 0089 INX    H       	..p..  A $00 B $02 C $00 D $00 E $00 H $03 L $04 SP 03f7
0000 008a INX    H       	..p..  A $00 B $02 C $00 D $00 E $00 H $03 L $05 SP 03f7
0000 008b MOV    A,M     	..p..  A $03 B $02 C $00 D $00 E $00 H $03 L $05 SP 03f7
0000 008c INX    H       	..p..  A $03 B $02 C $00 D $00 E $00 H $03 L $06 SP 03f7
0000 008d MOV    B,M     	..p..  A $03 B $01 C $00 D $00 E $00 H $03 L $06 SP 03f7
0000 008e INX    H       	..p..  A $03 B $01 C $00 D $00 E $00 H $03 L $07 SP 03f7
0000 008f MOV    C,M     	..p..  A $03 B $01 C $00 D $00 E $00 H $03 L $07 SP 03f7
0000 0090 INX    H       	..p..  A $03 B $01 C $00 D $00 E $00 H $03 L $08 SP 03f7
0000 0091 INX    H       	..p..  A $03 B $01 C $00 D $00 E $00 H $03 L $09 SP 03f7
0000 0092 INX    H       	..p..  A $03 B $01 C $00 D $00 E $00 H $03 L $0a SP 03f7
0000 0093 INX    H       	..p..  A $03 B $01 C $00 D $00 E $00 H $03 L $0b SP 03f7
0000 0094 INX    H       	..p..  A $03 B $01 C $00 D $00 E $00 H $03 L $0c SP 03f7
0000 0095 MOV    E,M     	..p..  A $03 B $01 C $00 D $00 E $f9 H $03 L $0c SP 03f7
0000 0096 INX    H       	..p..  A $03 B $01 C $00 D $00 E $f9 H $03 L $0d SP 03f7
0000 0097 MOV    D,M     	..p..  A $03 B $01 C $00 D $03 E $f9 H $03 L $0d SP 03f7
0000 0098 XCHG           	..p..  A $03 B $01 C $00 D $03 E $0d H $03 L $f9 SP 03f7
0000 0099 SPHL           	..p..  A $03 B $01 C $00 D $03 E $0d H $03 L $f9 SP 03f9
0000 009a XCHG           	..p..  A $03 B $01 C $00 D $03 E $f9 H $03 L $0d SP 03f9
0000 009b DCX    H       	..p..  A $03 B $01 C $00 D $03 E $f9 H $03 L $0c SP 03f9
0000 009c DCX    H       	..p..  A $03 B $01 C $00 D $03 E $f9 H $03 L $0b SP 03f9
0000 009d DCX    H       	..p..  A $03 B $01 C $00 D $03 E $f9 H $03 L $0a SP 03f9
0000 009e DCX    H       	..p..  A $03 B $01 C $00 D $03 E $f9 H $03 L $09 SP 03f9
0000 009f MOV    E,M     	..p..  A $03 B $01 C $00 D $03 E $00 H $03 L $09 SP 03f9
0000 00a0 DCX    H       	..p..  A $03 B $01 C $00 D $03 E $00 H $03 L $08 SP 03f9
0000 00a1 MOV    D,M     	..p..  A $03 B $01 C $00 D $00 E $00 H $03 L $08 SP 03f9
0000 00a2 PUSH   D       	..p..  A $03 B $01 C $00 D $00 E $00 H $03 L $08 SP 03f7
0000 00a3 INX    H       	..p..  A $03 B $01 C $00 D $00 E $00 H $03 L $09 SP 03f7
0000 00a4 INX    H       	..p..  A $03 B $01 C $00 D $00 E $00 H $03 L $0a SP 03f7
0000 00a5 MOV    D,M     	..p..  A $03 B $01 C $00 D $00 E $00 H $03 L $0a SP 03f7
0000 00a6 INX    H       	..p..  A $03 B $01 C $00 D $00 E $00 H $03 L $0b SP 03f7
0000 00a7 MOV    E,M     	..p..  A $03 B $01 C $00 D $00 E $1b H $03 L $0b SP 03f7
0000 00a8 PUSH   D       	..p..  A $03 B $01 C $00 D $00 E $1b H $03 L $0b SP 03f5
0000 00a9 INX    H       	..p..  A $03 B $01 C $00 D $00 E $1b H $03 L $0c SP 03f5
0000 00aa INX    H       	..p..  A $03 B $01 C $00 D $00 E $1b H $03 L $0d SP 03f5
0000 00ab INX    H       	..p..  A $03 B $01 C $00 D $00 E $1b H $03 L $0e SP 03f5
0000 00ac MOV    E,M     	..p..  A $03 B $01 C $00 D $00 E $28 H $03 L $0e SP 03f5
0000 00ad INX    H       	..p..  A $03 B $01 C $00 D $00 E $28 H $03 L $0f SP 03f5
0000 00ae MOV    D,M     	..p..  A $03 B $01 C $00 D $02 E $28 H $03 L $0f SP 03f5
0000 00af PUSH   D       	..p..  A $03 B $01 C $00 D $02 E $28 H $03 L $0f SP 03f3
0000 00b0 INX    H       	..p..  A $03 B $01 C $00 D $02 E $28 H $03 L $10 SP 03f3
0000 00b1 MOV    E,M     	..p..  A $03 B $01 C $00 D $02 E $00 H $03 L $10 SP 03f3
0000 00b2 INX    H       	..p..  A $03 B $01 C $00 D $02 E $00 H $03 L $11 SP 03f3
0000 00b3 MOV    D,M     	..p..  A $03 B $01 C $00 D $00 E $00 H $03 L $11 SP 03f3
0000 00b4 PUSH   D       	..p..  A $03 B $01 C $00 D $00 E $00 H $03 L $11 SP 03f1
0000 00b5 INX    H       	..p..  A $03 B $01 C $00 D $00 E $00 H $03 L $12 SP 03f1
0000 00b6 MOV    L,M     	..p..  A $03 B $01 C $00 D $00 E $00 H $03 L $00 SP 03f1
0000 00b7 MOV    H,A     	..p..  A $03 B $01 C $00 D $00 E $00 H $03 L $00 SP 03f1
0000 00b8 PUSH   H       	..p..  A $03 B $01 C $00 D $00 E $00 H $03 L $00 SP 03ef
0000 00b9 POP    PSW     	.....  A $03 B $01 C $00 D $00 E $00 H $03 L $00 SP 03f1
0000 00ba POP    D       	.....  A $03 B $01 C $00 D $00 E $00 H $03 L $00 SP 03f3
0000 00bb POP    H       	.....  A $03 B $01 C $00 D $00 E $00 H $02 L $28 SP 03f5
0000 00bc EI             	.....  A $03 B $01 C $00 D $00 E $00 H $02 L $28 SP 03f5
0000 00bd PCHL           	.....  A $03 B $01 C $00 D $00 E $00 H $00 L $1b SP 03f9
0000 0228 CMP    B       	.....  A $03 B $01 C $00 D $00 E $00 H $00 L $1b SP 03f9
0000 0229 JZ     $0274   	.....  A $03 B $01 C $00 D $00 E $00 H $00 L $1b SP 03f9
0000 022c MVI    D,#$02  	.....  A $03 B $01 C $00 D $02 E $00 H $00 L $1b SP 03f9
0000 022e MVI    E,#$00  	.....  A $03 B $01 C $00 D $02 E $00 H $00 L $1b SP 03f9
0000 0230 INR    D       	..p..  A $03 B $01 C $00 D $03 E $00 H $00 L $1b SP 03f9
0000 0231 LDAX   D       	..p..  A $02 B $01 C $00 D $03 E $00 H $00 L $1b SP 03f9
0000 0232 MOV    E,A     	..p..  A $02 B $01 C $00 D $03 E $02 H $00 L $1b SP 03f9
0000 0233 DCR    D       	.....  A $02 B $01 C $00 D $02 E $02 H $00 L $1b SP 03f9
0000 0234 CMP    D       	z.p..  A $02 B $01 C $00 D $02 E $02 H $00 L $1b SP 03f9
0000 0235 JNZ    $0230   	z.p..  A $02 B $01 C $00 D $02 E $02 H $00 L $1b SP 03f9
0000 0238 JM     $0230   	z.p..  A $02 B $01 C $00 D $02 E $02 H $00 L $1b SP 03f9
Interrupt: 83
	z.p..  A $02 B $01 C $00 D $02 E $02 H $00 L $1b SP 03f7
0000 0028 DI             	z.p..  A $02 B $01 C $00 D $02 E $02 H $00 L $1b SP 03f7
0000 0029 LXI    H,#$010a	z.p..  A $02 B $01 C $00 D $02 E $02 H $01 L $0a SP 03f7
0000 002c MOV    B,M     	z.p..  A $02 B $02 C $00 D $02 E $02 H $01 L $0a SP 03f7
0000 002d LDA    $010c   	z.p..  A $00 B $02 C $00 D $02 E $02 H $01 L $0a SP 03f7
0000 0030 ADD    B       	.....  A $02 B $02 C $00 D $02 E $02 H $01 L $0a SP 03f7
0000 0031 MOV    B,A     	.....  A $02 B $02 C $00 D $02 E $02 H $01 L $0a SP 03f7
0000 0032 MVI    C,#$ff  	.....  A $02 B $02 C $ff D $02 E $02 H $01 L $0a SP 03f7
0000 0034 INX    B       	.....  A $02 B $03 C $00 D $02 E $02 H $01 L $0a SP 03f7
0000 0035 MOV    H,B     	.....  A $02 B $03 C $00 D $02 E $02 H $03 L $0a SP 03f7
0000 0036 MOV    L,C     	.....  A $02 B $03 C $00 D $02 E $02 H $03 L $00 SP 03f7
0000 0037 MOV    B,M     	.....  A $02 B $02 C $00 D $02 E $02 H $03 L $00 SP 03f7
0000 0038 INX    H       	.....  A $02 B $02 C $00 D $02 E $02 H $03 L $01 SP 03f7
0000 0039 MOV    C,M     	.....  A $02 B $02 C $00 D $02 E $02 H $03 L $01 SP 03f7
0000 003a PUSH   B       	.....  A $02 B $02 C $00 D $02 E $02 H $03 L $01 SP 03f5
0000 003b INX    H       	.....  A $02 B $02 C $00 D $02 E $02 H $03 L $02 SP 03f5
0000 003c INX    H       	.....  A $02 B $02 C $00 D $02 E $02 H $03 L $03 SP 03f5
0000 003d INX    H       	.....  A $02 B $02 C $00 D $02 E $02 H $03 L $04 SP 03f5
0000 003e INX    H       	.....  A $02 B $02 C $00 D $02 E $02 H $03 L $05 SP 03f5
0000 003f LDA    $0100   	.....  A $02 B $02 C $00 D $02 E $02 H $03 L $05 SP 03f5
0000 0042 MOV    M,A     	.....  A $02 B $02 C $00 D $02 E $02 H $03 L $05 SP 03f5
0000 0043 INX    H       	.....  A $02 B $02 C $00 D $02 E $02 H $03 L $06 SP 03f5
0000 0044 LDA    $0101   	.....  A $01 B $02 C $00 D $02 E $02 H $03 L $06 SP 03f5
0000 0047 MOV    M,A     	.....  A $01 B $02 C $00 D $02 E $02 H $03 L $06 SP 03f5
0000 0048 INX    H       	.....  A $01 B $02 C $00 D $02 E $02 H $03 L $07 SP 03f5
0000 0049 LDA    $0102   	.....  A $00 B $02 C $00 D $02 E $02 H $03 L $07 SP 03f5
0000 004c MOV    M,A     	.....  A $00 B $02 C $00 D $02 E $02 H $03 L $07 SP 03f5
0000 004d INX    H       	.....  A $00 B $02 C $00 D $02 E $02 H $03 L $08 SP 03f5
0000 004e LDA    $0103   	.....  A $02 B $02 C $00 D $02 E $02 H $03 L $08 SP 03f5
0000 0051 MOV    M,A     	.....  A $02 B $02 C $00 D $02 E $02 H $03 L $08 SP 03f5
0000 0052 INX    H       	.....  A $02 B $02 C $00 D $02 E $02 H $03 L $09 SP 03f5
0000 0053 LDA    $0104   	.....  A $02 B $02 C $00 D $02 E $02 H $03 L $09 SP 03f5
0000 0056 MOV    M,A     	.....  A $02 B $02 C $00 D $02 E $02 H $03 L $09 SP 03f5
0000 0057 INX    H       	.....  A $02 B $02 C $00 D $02 E $02 H $03 L $0a SP 03f5
0000 0058 LDA    $0105   	.....  A $00 B $02 C $00 D $02 E $02 H $03 L $0a SP 03f5
0000 005b MOV    M,A     	.....  A $00 B $02 C $00 D $02 E $02 H $03 L $0a SP 03f5
0000 005c INX    H       	.....  A $00 B $02 C $00 D $02 E $02 H $03 L $0b SP 03f5
0000 005d LDA    $0106   	.....  A $1b B $02 C $00 D $02 E $02 H $03 L $0b SP 03f5
0000 0060 MOV    M,A     	.....  A $1b B $02 C $00 D $02 E $02 H $03 L $0b SP 03f5
0000 0061 INX    H       	.....  A $1b B $02 C $00 D $02 E $02 H $03 L $0c SP 03f5
0000 0062 LDA    $0107   	.....  A $f9 B $02 C $00 D $02 E $02 H $03 L $0c SP 03f5
0000 0065 MOV    M,A     	.....  A $f9 B $02 C $00 D $02 E $02 H $03 L $0c SP 03f5
0000 0066 INX    H       	.....  A $f9 B $02 C $00 D $02 E $02 H $03 L $0d SP 03f5
0000 0067 LDA    $0108   	.....  A $03 B $02 C $00 D $02 E $02 H $03 L $0d SP 03f5
0000 006a MOV    M,A     	.....  A $03 B $02 C $00 D $02 E $02 H $03 L $0d SP 03f5
0000 006b INX    H       	.....  A $03 B $02 C $00 D $02 E $02 H $03 L $0e SP 03f5
0000 006c LDA    $0109   	.....  A $3b B $02 C $00 D $02 E $02 H $03 L $0e SP 03f5
0000 006f MOV    M,A     	.....  A $3b B $02 C $00 D $02 E $02 H $03 L $0e SP 03f5
0000 0070 INX    H       	.....  A $3b B $02 C $00 D $02 E $02 H $03 L $0f SP 03f5
0000 0071 LDA    $010a   	.....  A $02 B $02 C $00 D $02 E $02 H $03 L $0f SP 03f5
0000 0074 MOV    M,A     	.....  A $02 B $02 C $00 D $02 E $02 H $03 L $0f SP 03f5
0000 0075 INX    H       	.....  A $02 B $02 C $00 D $02 E $02 H $03 L $10 SP 03f5
0000 0076 LDA    $010b   	.....  A $00 B $02 C $00 D $02 E $02 H $03 L $10 SP 03f5
0000 0079 MOV    M,A     	.....  A $00 B $02 C $00 D $02 E $02 H $03 L $10 SP 03f5
0000 007a INX    H       	.....  A $00 B $02 C $00 D $02 E $02 H $03 L $11 SP 03f5
0000 007b LDA    $010c   	.....  A $00 B $02 C $00 D $02 E $02 H $03 L $11 SP 03f5
0000 007e MOV    M,A     	.....  A $00 B $02 C $00 D $02 E $02 H $03 L $11 SP 03f5
0000 007f INX    H       	.....  A $00 B $02 C $00 D $02 E $02 H $03 L $12 SP 03f5
0000 0080 LDA    $010d   	.....  A $44 B $02 C $00 D $02 E $02 H $03 L $12 SP 03f5
0000 0083 MOV    M,A     	.....  A $44 B $02 C $00 D $02 E $02 H $03 L $12 SP 03f5
0000 0084 POP    H       	.....  A $44 B $02 C $00 D $02 E $02 H $02 L $00 SP 03f7
0000 0085 INR    H       	..p..  A $44 B $02 C $00 D $02 E $02 H $03 L $00 SP 03f7
0000 0086 INX    H       	..p..  A $44 B $02 C $00 D $02 E $02 H $03 L $01 SP 03f7
0000 0087 INX    H       	..p..  A $44 B $02 C $00 D $02 E $02 H $03 L $02 SP 03f7
0000 0088 INX    H       	..p..  A $44 B $02 C $00 D $02 E $02 H $03 L $03 SP 03f7
0000 0089 INX    H       	..p..  A $44 B $02 C $00 D $02 E $02 H $03 L $04 SP 03f7
0000 008a INX    H       	..p..  A $44 B $02 C $00 D $02 E $02 H $03 L $05 SP 03f7
0000 008b MOV    A,M     	..p..  A $02 B $02 C $00 D $02 E $02 H $03 L $05 SP 03f7
0000 008c INX    H       	..p..  A $02 B $02 C $00 D $02 E $02 H $03 L $06 SP 03f7
0000 008d MOV    B,M     	..p..  A $02 B $01 C $00 D $02 E $02 H $03 L $06 SP 03f7
0000 008e INX    H       	..p..  A $02 B $01 C $00 D $02 E $02 H $03 L $07 SP 03f7
0000 008f MOV    C,M     	..p..  A $02 B $01 C $00 D $02 E $02 H $03 L $07 SP 03f7
0000 0090 INX    H       	..p..  A $02 B $01 C $00 D $02 E $02 H $03 L $08 SP 03f7
0000 0091 INX    H       	..p..  A $02 B $01 C $00 D $02 E $02 H $03 L $09 SP 03f7
0000 0092 INX    H       	..p..  A $02 B $01 C $00 D $02 E $02 H $03 L $0a SP 03f7
0000 0093 INX    H       	..p..  A $02 B $01 C $00 D $02 E $02 H $03 L $0b SP 03f7
0000 0094 INX    H       	..p..  A $02 B $01 C $00 D $02 E $02 H $03 L $0c SP 03f7
0000 0095 MOV    E,M     	..p..  A $02 B $01 C $00 D $02 E $f9 H $03 L $0c SP 03f7
0000 0096 INX    H       	..p..  A $02 B $01 C $00 D $02 E $f9 H $03 L $0d SP 03f7
0000 0097 MOV    D,M     	..p..  A $02 B $01 C $00 D $03 E $f9 H $03 L $0d SP 03f7
0000 0098 XCHG           	..p..  A $02 B $01 C $00 D $03 E $0d H $03 L $f9 SP 03f7
0000 0099 SPHL           	..p..  A $02 B $01 C $00 D $03 E $0d H $03 L $f9 SP 03f9
0000 009a XCHG           	..p..  A $02 B $01 C $00 D $03 E $f9 H $03 L $0d SP 03f9
0000 009b DCX    H       	..p..  A $02 B $01 C $00 D $03 E $f9 H $03 L $0c SP 03f9
0000 009c DCX    H       	..p..  A $02 B $01 C $00 D $03 E $f9 H $03 L $0b SP 03f9
0000 009d DCX    H       	..p..  A $02 B $01 C $00 D $03 E $f9 H $03 L $0a SP 03f9
0000 009e DCX    H       	..p..  A $02 B $01 C $00 D $03 E $f9 H $03 L $09 SP 03f9
0000 009f MOV    E,M     	..p..  A $02 B $01 C $00 D $03 E $02 H $03 L $09 SP 03f9
0000 00a0 DCX    H       	..p..  A $02 B $01 C $00 D $03 E $02 H $03 L $08 SP 03f9
0000 00a1 MOV    D,M     	..p..  A $02 B $01 C $00 D $02 E $02 H $03 L $08 SP 03f9
0000 00a2 PUSH   D       	..p..  A $02 B $01 C $00 D $02 E $02 H $03 L $08 SP 03f7
0000 00a3 INX    H       	..p..  A $02 B $01 C $00 D $02 E $02 H $03 L $09 SP 03f7
0000 00a4 INX    H       	..p..  A $02 B $01 C $00 D $02 E $02 H $03 L $0a SP 03f7
0000 00a5 MOV    D,M     	..p..  A $02 B $01 C $00 D $00 E $02 H $03 L $0a SP 03f7
0000 00a6 INX    H       	..p..  A $02 B $01 C $00 D $00 E $02 H $03 L $0b SP 03f7
0000 00a7 MOV    E,M     	..p..  A $02 B $01 C $00 D $00 E $1b H $03 L $0b SP 03f7
0000 00a8 PUSH   D       	..p..  A $02 B $01 C $00 D $00 E $1b H $03 L $0b SP 03f5
0000 00a9 INX    H       	..p..  A $02 B $01 C $00 D $00 E $1b H $03 L $0c SP 03f5
0000 00aa INX    H       	..p..  A $02 B $01 C $00 D $00 E $1b H $03 L $0d SP 03f5
0000 00ab INX    H       	..p..  A $02 B $01 C $00 D $00 E $1b H $03 L $0e SP 03f5
0000 00ac MOV    E,M     	..p..  A $02 B $01 C $00 D $00 E $3b H $03 L $0e SP 03f5
0000 00ad INX    H       	..p..  A $02 B $01 C $00 D $00 E $3b H $03 L $0f SP 03f5
0000 00ae MOV    D,M     	..p..  A $02 B $01 C $00 D $02 E $3b H $03 L $0f SP 03f5
0000 00af PUSH   D       	..p..  A $02 B $01 C $00 D $02 E $3b H $03 L $0f SP 03f3
0000 00b0 INX    H       	..p..  A $02 B $01 C $00 D $02 E $3b H $03 L $10 SP 03f3
0000 00b1 MOV    E,M     	..p..  A $02 B $01 C $00 D $02 E $00 H $03 L $10 SP 03f3
0000 00b2 INX    H       	..p..  A $02 B $01 C $00 D $02 E $00 H $03 L $11 SP 03f3
0000 00b3 MOV    D,M     	..p..  A $02 B $01 C $00 D $00 E $00 H $03 L $11 SP 03f3
0000 00b4 PUSH   D       	..p..  A $02 B $01 C $00 D $00 E $00 H $03 L $11 SP 03f1
0000 00b5 INX    H       	..p..  A $02 B $01 C $00 D $00 E $00 H $03 L $12 SP 03f1
0000 00b6 MOV    L,M     	..p..  A $02 B $01 C $00 D $00 E $00 H $03 L $44 SP 03f1
0000 00b7 MOV    H,A     	..p..  A $02 B $01 C $00 D $00 E $00 H $02 L $44 SP 03f1
0000 00b8 PUSH   H       	..p..  A $02 B $01 C $00 D $00 E $00 H $02 L $44 SP 03ef
0000 00b9 POP    PSW     	z.p..  A $02 B $01 C $00 D $00 E $00 H $02 L $44 SP 03f1
0000 00ba POP    D       	z.p..  A $02 B $01 C $00 D $00 E $00 H $02 L $44 SP 03f3
0000 00bb POP    H       	z.p..  A $02 B $01 C $00 D $00 E $00 H $02 L $3b SP 03f5
0000 00bc EI             	z.p..  A $02 B $01 C $00 D $00 E $00 H $02 L $3b SP 03f5
0000 00bd PCHL           	z.p..  A $02 B $01 C $00 D $02 E $02 H $00 L $1b SP 03f9
0000 023b INR    D       	..p..  A $02 B $01 C $00 D $03 E $02 H $00 L $1b SP 03f9
0000 023c INR    D       	.....  A $02 B $01 C $00 D $04 E $02 H $00 L $1b SP 03f9
0000 023d INR    D       	..p..  A $02 B $01 C $00 D $05 E $02 H $00 L $1b SP 03f9
0000 023e MOV    H,D     	..p..  A $02 B $01 C $00 D $05 E $02 H $05 L $1b SP 03f9
0000 023f MVI    L,#$00  	..p..  A $02 B $01 C $00 D $05 E $02 H $05 L $00 SP 03f9
0000 0241 MOV    M.E     	..p..  A $02 B $01 C $00 D $05 E $02 H $05 L $00 SP 03f9
0000 0242 INX    H       	..p..  A $02 B $01 C $00 D $05 E $02 H $05 L $01 SP 03f9
0000 0243 MVI    M,#$00  	..p..  A $02 B $01 C $00 D $05 E $02 H $05 L $01 SP 03f9
0000 0245 INX    H       	..p..  A $02 B $01 C $00 D $05 E $02 H $05 L $02 SP 03f9
0000 0246 MOV    M,B     	..p..  A $02 B $01 C $00 D $05 E $02 H $05 L $02 SP 03f9
0000 0247 MOV    A,B     	..p..  A $01 B $01 C $00 D $05 E $02 H $05 L $02 SP 03f9
0000 0248 POP    B       	..p..  A $01 B $00 C $1b D $05 E $02 H $05 L $02 SP 03fb
Interrupt: 85
	..p..  A $01 B $00 C $1b D $05 E $02 H $05 L $02 SP 03f9
0000 0028 DI             	..p..  A $01 B $00 C $1b D $05 E $02 H $05 L $02 SP 03f9
0000 0029 LXI    H,#$010a	..p..  A $01 B $00 C $1b D $05 E $02 H $01 L $0a SP 03f9
0000 002c MOV    B,M     	..p..  A $01 B $02 C $1b D $05 E $02 H $01 L $0a SP 03f9
0000 002d LDA    $010c   	..p..  A $00 B $02 C $1b D $05 E $02 H $01 L $0a SP 03f9
0000 0030 ADD    B       	.....  A $02 B $02 C $1b D $05 E $02 H $01 L $0a SP 03f9
0000 0031 MOV    B,A     	.....  A $02 B $02 C $1b D $05 E $02 H $01 L $0a SP 03f9
0000 0032 MVI    C,#$ff  	.....  A $02 B $02 C $ff D $05 E $02 H $01 L $0a SP 03f9
0000 0034 INX    B       	.....  A $02 B $03 C $00 D $05 E $02 H $01 L $0a SP 03f9
0000 0035 MOV    H,B     	.....  A $02 B $03 C $00 D $05 E $02 H $03 L $0a SP 03f9
0000 0036 MOV    L,C     	.....  A $02 B $03 C $00 D $05 E $02 H $03 L $00 SP 03f9
0000 0037 MOV    B,M     	.....  A $02 B $02 C $00 D $05 E $02 H $03 L $00 SP 03f9
0000 0038 INX    H       	.....  A $02 B $02 C $00 D $05 E $02 H $03 L $01 SP 03f9
0000 0039 MOV    C,M     	.....  A $02 B $02 C $00 D $05 E $02 H $03 L $01 SP 03f9
0000 003a PUSH   B       	.....  A $02 B $02 C $00 D $05 E $02 H $03 L $01 SP 03f7
0000 003b INX    H       	.....  A $02 B $02 C $00 D $05 E $02 H $03 L $02 SP 03f7
0000 003c INX    H       	.....  A $02 B $02 C $00 D $05 E $02 H $03 L $03 SP 03f7
0000 003d INX    H       	.....  A $02 B $02 C $00 D $05 E $02 H $03 L $04 SP 03f7
0000 003e INX    H       	.....  A $02 B $02 C $00 D $05 E $02 H $03 L $05 SP 03f7
0000 003f LDA    $0100   	.....  A $01 B $02 C $00 D $05 E $02 H $03 L $05 SP 03f7
0000 0042 MOV    M,A     	.....  A $01 B $02 C $00 D $05 E $02 H $03 L $05 SP 03f7
0000 0043 INX    H       	.....  A $01 B $02 C $00 D $05 E $02 H $03 L $06 SP 03f7
0000 0044 LDA    $0101   	.....  A $00 B $02 C $00 D $05 E $02 H $03 L $06 SP 03f7
0000 0047 MOV    M,A     	.....  A $00 B $02 C $00 D $05 E $02 H $03 L $06 SP 03f7
0000 0048 INX    H       	.....  A $00 B $02 C $00 D $05 E $02 H $03 L $07 SP 03f7
0000 0049 LDA    $0102   	.....  A $1b B $02 C $00 D $05 E $02 H $03 L $07 SP 03f7
0000 004c MOV    M,A     	.....  A $1b B $02 C $00 D $05 E $02 H $03 L $07 SP 03f7
0000 004d INX    H       	.....  A $1b B $02 C $00 D $05 E $02 H $03 L $08 SP 03f7
0000 004e LDA    $0103   	.....  A $05 B $02 C $00 D $05 E $02 H $03 L $08 SP 03f7
0000 0051 MOV    M,A     	.....  A $05 B $02 C $00 D $05 E $02 H $03 L $08 SP 03f7
0000 0052 INX    H       	.....  A $05 B $02 C $00 D $05 E $02 H $03 L $09 SP 03f7
0000 0053 LDA    $0104   	.....  A $02 B $02 C $00 D $05 E $02 H $03 L $09 SP 03f7
0000 0056 MOV    M,A     	.....  A $02 B $02 C $00 D $05 E $02 H $03 L $09 SP 03f7
0000 0057 INX    H       	.....  A $02 B $02 C $00 D $05 E $02 H $03 L $0a SP 03f7
0000 0058 LDA    $0105   	.....  A $05 B $02 C $00 D $05 E $02 H $03 L $0a SP 03f7
0000 005b MOV    M,A     	.....  A $05 B $02 C $00 D $05 E $02 H $03 L $0a SP 03f7
0000 005c INX    H       	.....  A $05 B $02 C $00 D $05 E $02 H $03 L $0b SP 03f7
0000 005d LDA    $0106   	.....  A $02 B $02 C $00 D $05 E $02 H $03 L $0b SP 03f7
0000 0060 MOV    M,A     	.....  A $02 B $02 C $00 D $05 E $02 H $03 L $0b SP 03f7
0000 0061 INX    H       	.....  A $02 B $02 C $00 D $05 E $02 H $03 L $0c SP 03f7
0000 0062 LDA    $0107   	.....  A $fb B $02 C $00 D $05 E $02 H $03 L $0c SP 03f7
0000 0065 MOV    M,A     	.....  A $fb B $02 C $00 D $05 E $02 H $03 L $0c SP 03f7
0000 0066 INX    H       	.....  A $fb B $02 C $00 D $05 E $02 H $03 L $0d SP 03f7
0000 0067 LDA    $0108   	.....  A $03 B $02 C $00 D $05 E $02 H $03 L $0d SP 03f7
0000 006a MOV    M,A     	.....  A $03 B $02 C $00 D $05 E $02 H $03 L $0d SP 03f7
0000 006b INX    H       	.....  A $03 B $02 C $00 D $05 E $02 H $03 L $0e SP 03f7
0000 006c LDA    $0109   	.....  A $49 B $02 C $00 D $05 E $02 H $03 L $0e SP 03f7
0000 006f MOV    M,A     	.....  A $49 B $02 C $00 D $05 E $02 H $03 L $0e SP 03f7
0000 0070 INX    H       	.....  A $49 B $02 C $00 D $05 E $02 H $03 L $0f SP 03f7
0000 0071 LDA    $010a   	.....  A $02 B $02 C $00 D $05 E $02 H $03 L $0f SP 03f7
0000 0074 MOV    M,A     	.....  A $02 B $02 C $00 D $05 E $02 H $03 L $0f SP 03f7
0000 0075 INX    H       	.....  A $02 B $02 C $00 D $05 E $02 H $03 L $10 SP 03f7
0000 0076 LDA    $010b   	.....  A $00 B $02 C $00 D $05 E $02 H $03 L $10 SP 03f7
0000 0079 MOV    M,A     	.....  A $00 B $02 C $00 D $05 E $02 H $03 L $10 SP 03f7
0000 007a INX    H       	.....  A $00 B $02 C $00 D $05 E $02 H $03 L $11 SP 03f7
0000 007b LDA    $010c   	.....  A $00 B $02 C $00 D $05 E $02 H $03 L $11 SP 03f7
0000 007e MOV    M,A     	.....  A $00 B $02 C $00 D $05 E $02 H $03 L $11 SP 03f7
0000 007f INX    H       	.....  A $00 B $02 C $00 D $05 E $02 H $03 L $12 SP 03f7
0000 0080 LDA    $010d   	.....  A $04 B $02 C $00 D $05 E $02 H $03 L $12 SP 03f7
0000 0083 MOV    M,A     	.....  A $04 B $02 C $00 D $05 E $02 H $03 L $12 SP 03f7
0000 0084 POP    H       	.....  A $04 B $02 C $00 D $05 E $02 H $02 L $00 SP 03f9
0000 0085 INR    H       	..p..  A $04 B $02 C $00 D $05 E $02 H $03 L $00 SP 03f9
0000 0086 INX    H       	..p..  A $04 B $02 C $00 D $05 E $02 H $03 L $01 SP 03f9
0000 0087 INX    H       	..p..  A $04 B $02 C $00 D $05 E $02 H $03 L $02 SP 03f9
0000 0088 INX    H       	..p..  A $04 B $02 C $00 D $05 E $02 H $03 L $03 SP 03f9
0000 0089 INX    H       	..p..  A $04 B $02 C $00 D $05 E $02 H $03 L $04 SP 03f9
0000 008a INX    H       	..p..  A $04 B $02 C $00 D $05 E $02 H $03 L $05 SP 03f9
0000 008b MOV    A,M     	..p..  A $01 B $02 C $00 D $05 E $02 H $03 L $05 SP 03f9
0000 008c INX    H       	..p..  A $01 B $02 C $00 D $05 E $02 H $03 L $06 SP 03f9
0000 008d MOV    B,M     	..p..  A $01 B $00 C $00 D $05 E $02 H $03 L $06 SP 03f9
0000 008e INX    H       	..p..  A $01 B $00 C $00 D $05 E $02 H $03 L $07 SP 03f9
0000 008f MOV    C,M     	..p..  A $01 B $00 C $1b D $05 E $02 H $03 L $07 SP 03f9
0000 0090 INX    H       	..p..  A $01 B $00 C $1b D $05 E $02 H $03 L $08 SP 03f9
0000 0091 INX    H       	..p..  A $01 B $00 C $1b D $05 E $02 H $03 L $09 SP 03f9
0000 0092 INX    H       	..p..  A $01 B $00 C $1b D $05 E $02 H $03 L $0a SP 03f9
0000 0093 INX    H       	..p..  A $01 B $00 C $1b D $05 E $02 H $03 L $0b SP 03f9
0000 0094 INX    H       	..p..  A $01 B $00 C $1b D $05 E $02 H $03 L $0c SP 03f9
0000 0095 MOV    E,M     	..p..  A $01 B $00 C $1b D $05 E $fb H $03 L $0c SP 03f9
0000 0096 INX    H       	..p..  A $01 B $00 C $1b D $05 E $fb H $03 L $0d SP 03f9
0000 0097 MOV    D,M     	..p..  A $01 B $00 C $1b D $03 E $fb H $03 L $0d SP 03f9
0000 0098 XCHG           	..p..  A $01 B $00 C $1b D $03 E $0d H $03 L $fb SP 03f9
0000 0099 SPHL           	..p..  A $01 B $00 C $1b D $03 E $0d H $03 L $fb SP 03fb
0000 009a XCHG           	..p..  A $01 B $00 C $1b D $03 E $fb H $03 L $0d SP 03fb
0000 009b DCX    H       	..p..  A $01 B $00 C $1b D $03 E $fb H $03 L $0c SP 03fb
0000 009c DCX    H       	..p..  A $01 B $00 C $1b D $03 E $fb H $03 L $0b SP 03fb
0000 009d DCX    H       	..p..  A $01 B $00 C $1b D $03 E $fb H $03 L $0a SP 03fb
0000 009e DCX    H       	..p..  A $01 B $00 C $1b D $03 E $fb H $03 L $09 SP 03fb
0000 009f MOV    E,M     	..p..  A $01 B $00 C $1b D $03 E $02 H $03 L $09 SP 03fb
0000 00a0 DCX    H       	..p..  A $01 B $00 C $1b D $03 E $02 H $03 L $08 SP 03fb
0000 00a1 MOV    D,M     	..p..  A $01 B $00 C $1b D $05 E $02 H $03 L $08 SP 03fb
0000 00a2 PUSH   D       	..p..  A $01 B $00 C $1b D $05 E $02 H $03 L $08 SP 03f9
0000 00a3 INX    H       	..p..  A $01 B $00 C $1b D $05 E $02 H $03 L $09 SP 03f9
0000 00a4 INX    H       	..p..  A $01 B $00 C $1b D $05 E $02 H $03 L $0a SP 03f9
0000 00a5 MOV    D,M     	..p..  A $01 B $00 C $1b D $05 E $02 H $03 L $0a SP 03f9
0000 00a6 INX    H       	..p..  A $01 B $00 C $1b D $05 E $02 H $03 L $0b SP 03f9
0000 00a7 MOV    E,M     	..p..  A $01 B $00 C $1b D $05 E $02 H $03 L $0b SP 03f9
0000 00a8 PUSH   D       	..p..  A $01 B $00 C $1b D $05 E $02 H $03 L $0b SP 03f7
0000 00a9 INX    H       	..p..  A $01 B $00 C $1b D $05 E $02 H $03 L $0c SP 03f7
0000 00aa INX    H       	..p..  A $01 B $00 C $1b D $05 E $02 H $03 L $0d SP 03f7
0000 00ab INX    H       	..p..  A $01 B $00 C $1b D $05 E $02 H $03 L $0e SP 03f7
0000 00ac MOV    E,M     	..p..  A $01 B $00 C $1b D $05 E $49 H $03 L $0e SP 03f7
0000 00ad INX    H       	..p..  A $01 B $00 C $1b D $05 E $49 H $03 L $0f SP 03f7
0000 00ae MOV    D,M     	..p..  A $01 B $00 C $1b D $02 E $49 H $03 L $0f SP 03f7
0000 00af PUSH   D       	..p..  A $01 B $00 C $1b D $02 E $49 H $03 L $0f SP 03f5
0000 00b0 INX    H       	..p..  A $01 B $00 C $1b D $02 E $49 H $03 L $10 SP 03f5
0000 00b1 MOV    E,M     	..p..  A $01 B $00 C $1b D $02 E $00 H $03 L $10 SP 03f5
0000 00b2 INX    H       	..p..  A $01 B $00 C $1b D $02 E $00 H $03 L $11 SP 03f5
0000 00b3 MOV    D,M     	..p..  A $01 B $00 C $1b D $00 E $00 H $03 L $11 SP 03f5
0000 00b4 PUSH   D       	..p..  A $01 B $00 C $1b D $00 E $00 H $03 L $11 SP 03f3
0000 00b5 INX    H       	..p..  A $01 B $00 C $1b D $00 E $00 H $03 L $12 SP 03f3
0000 00b6 MOV    L,M     	..p..  A $01 B $00 C $1b D $00 E $00 H $03 L $04 SP 03f3
0000 00b7 MOV    H,A     	..p..  A $01 B $00 C $1b D $00 E $00 H $01 L $04 SP 03f3
0000 00b8 PUSH   H       	..p..  A $01 B $00 C $1b D $00 E $00 H $01 L $04 SP 03f1
0000 00b9 POP    PSW     	..p..  A $01 B $00 C $1b D $00 E $00 H $01 L $04 SP 03f3
0000 00ba POP    D       	..p..  A $01 B $00 C $1b D $00 E $00 H $01 L $04 SP 03f5
0000 00bb POP    H       	..p..  A $01 B $00 C $1b D $00 E $00 H $02 L $49 SP 03f7
0000 00bc EI             	..p..  A $01 B $00 C $1b D $00 E $00 H $02 L $49 SP 03f7
0000 00bd PCHL           	..p..  A $01 B $00 C $1b D $05 E $02 H $05 L $02 SP 03fb
0000 0249 INX    H       	..p..  A $01 B $00 C $1b D $05 E $02 H $05 L $03 SP 03fb
0000 024a MOV    M,B     	..p..  A $01 B $00 C $1b D $05 E $02 H $05 L $03 SP 03fb
0000 024b INX    H       	..p..  A $01 B $00 C $1b D $05 E $02 H $05 L $04 SP 03fb
0000 024c MOV    M,C     	..p..  A $01 B $00 C $1b D $05 E $02 H $05 L $04 SP 03fb
0000 024d MVI    L,#$0d  	..p..  A $01 B $00 C $1b D $05 E $02 H $05 L $0d SP 03fb
0000 024f MOV    M,H     	..p..  A $01 B $00 C $1b D $05 E $02 H $05 L $0d SP 03fb
0000 0250 DCX    H       	..p..  A $01 B $00 C $1b D $05 E $02 H $05 L $0c SP 03fb
0000 0251 MVI    M,#$ff  	..p..  A $01 B $00 C $1b D $05 E $02 H $05 L $0c SP 03fb
0000 0253 INX    H       	..p..  A $01 B $00 C $1b D $05 E $02 H $05 L $0d SP 03fb
0000 0254 INX    H       	..p..  A $01 B $00 C $1b D $05 E $02 H $05 L $0e SP 03fb
0000 0255 MVI    M,#$00  	..p..  A $01 B $00 C $1b D $05 E $02 H $05 L $0e SP 03fb
Interrupt: 82
	..p..  A $01 B $00 C $1b D $05 E $02 H $05 L $0e SP 03f9
0000 0028 DI             	..p..  A $01 B $00 C $1b D $05 E $02 H $05 L $0e SP 03f9
0000 0029 LXI    H,#$010a	..p..  A $01 B $00 C $1b D $05 E $02 H $01 L $0a SP 03f9
0000 002c MOV    B,M     	..p..  A $01 B $02 C $1b D $05 E $02 H $01 L $0a SP 03f9
0000 002d LDA    $010c   	..p..  A $00 B $02 C $1b D $05 E $02 H $01 L $0a SP 03f9
0000 0030 ADD    B       	.....  A $02 B $02 C $1b D $05 E $02 H $01 L $0a SP 03f9
0000 0031 MOV    B,A     	.....  A $02 B $02 C $1b D $05 E $02 H $01 L $0a SP 03f9
0000 0032 MVI    C,#$ff  	.....  A $02 B $02 C $ff D $05 E $02 H $01 L $0a SP 03f9
0000 0034 INX    B       	.....  A $02 B $03 C $00 D $05 E $02 H $01 L $0a SP 03f9
0000 0035 MOV    H,B     	.....  A $02 B $03 C $00 D $05 E $02 H $03 L $0a SP 03f9
0000 0036 MOV    L,C     	.....  A $02 B $03 C $00 D $05 E $02 H $03 L $00 SP 03f9
0000 0037 MOV    B,M     	.....  A $02 B $02 C $00 D $05 E $02 H $03 L $00 SP 03f9
0000 0038 INX    H       	.....  A $02 B $02 C $00 D $05 E $02 H $03 L $01 SP 03f9
0000 0039 MOV    C,M     	.....  A $02 B $02 C $00 D $05 E $02 H $03 L $01 SP 03f9
0000 003a PUSH   B       	.....  A $02 B $02 C $00 D $05 E $02 H $03 L $01 SP 03f7
0000 003b INX    H       	.....  A $02 B $02 C $00 D $05 E $02 H $03 L $02 SP 03f7
0000 003c INX    H       	.....  A $02 B $02 C $00 D $05 E $02 H $03 L $03 SP 03f7
0000 003d INX    H       	.....  A $02 B $02 C $00 D $05 E $02 H $03 L $04 SP 03f7
0000 003e INX    H       	.....  A $02 B $02 C $00 D $05 E $02 H $03 L $05 SP 03f7
0000 003f LDA    $0100   	.....  A $01 B $02 C $00 D $05 E $02 H $03 L $05 SP 03f7
0000 0042 MOV    M,A     	.....  A $01 B $02 C $00 D $05 E $02 H $03 L $05 SP 03f7
0000 0043 INX    H       	.....  A $01 B $02 C $00 D $05 E $02 H $03 L $06 SP 03f7
0000 0044 LDA    $0101   	.....  A $00 B $02 C $00 D $05 E $02 H $03 L $06 SP 03f7
0000 0047 MOV    M,A     	.....  A $00 B $02 C $00 D $05 E $02 H $03 L $06 SP 03f7
0000 0048 INX    H       	.....  A $00 B $02 C $00 D $05 E $02 H $03 L $07 SP 03f7
0000 0049 LDA    $0102   	.....  A $1b B $02 C $00 D $05 E $02 H $03 L $07 SP 03f7
0000 004c MOV    M,A     	.....  A $1b B $02 C $00 D $05 E $02 H $03 L $07 SP 03f7
0000 004d INX    H       	.....  A $1b B $02 C $00 D $05 E $02 H $03 L $08 SP 03f7
0000 004e LDA    $0103   	.....  A $05 B $02 C $00 D $05 E $02 H $03 L $08 SP 03f7
0000 0051 MOV    M,A     	.....  A $05 B $02 C $00 D $05 E $02 H $03 L $08 SP 03f7
0000 0052 INX    H       	.....  A $05 B $02 C $00 D $05 E $02 H $03 L $09 SP 03f7
0000 0053 LDA    $0104   	.....  A $02 B $02 C $00 D $05 E $02 H $03 L $09 SP 03f7
0000 0056 MOV    M,A     	.....  A $02 B $02 C $00 D $05 E $02 H $03 L $09 SP 03f7
0000 0057 INX    H       	.....  A $02 B $02 C $00 D $05 E $02 H $03 L $0a SP 03f7
0000 0058 LDA    $0105   	.....  A $05 B $02 C $00 D $05 E $02 H $03 L $0a SP 03f7
0000 005b MOV    M,A     	.....  A $05 B $02 C $00 D $05 E $02 H $03 L $0a SP 03f7
0000 005c INX    H       	.....  A $05 B $02 C $00 D $05 E $02 H $03 L $0b SP 03f7
0000 005d LDA    $0106   	.....  A $0e B $02 C $00 D $05 E $02 H $03 L $0b SP 03f7
0000 0060 MOV    M,A     	.....  A $0e B $02 C $00 D $05 E $02 H $03 L $0b SP 03f7
0000 0061 INX    H       	.....  A $0e B $02 C $00 D $05 E $02 H $03 L $0c SP 03f7
0000 0062 LDA    $0107   	.....  A $fb B $02 C $00 D $05 E $02 H $03 L $0c SP 03f7
0000 0065 MOV    M,A     	.....  A $fb B $02 C $00 D $05 E $02 H $03 L $0c SP 03f7
0000 0066 INX    H       	.....  A $fb B $02 C $00 D $05 E $02 H $03 L $0d SP 03f7
0000 0067 LDA    $0108   	.....  A $03 B $02 C $00 D $05 E $02 H $03 L $0d SP 03f7
0000 006a MOV    M,A     	.....  A $03 B $02 C $00 D $05 E $02 H $03 L $0d SP 03f7
0000 006b INX    H       	.....  A $03 B $02 C $00 D $05 E $02 H $03 L $0e SP 03f7
0000 006c LDA    $0109   	.....  A $57 B $02 C $00 D $05 E $02 H $03 L $0e SP 03f7
0000 006f MOV    M,A     	.....  A $57 B $02 C $00 D $05 E $02 H $03 L $0e SP 03f7
0000 0070 INX    H       	.....  A $57 B $02 C $00 D $05 E $02 H $03 L $0f SP 03f7
0000 0071 LDA    $010a   	.....  A $02 B $02 C $00 D $05 E $02 H $03 L $0f SP 03f7
0000 0074 MOV    M,A     	.....  A $02 B $02 C $00 D $05 E $02 H $03 L $0f SP 03f7
0000 0075 INX    H       	.....  A $02 B $02 C $00 D $05 E $02 H $03 L $10 SP 03f7
0000 0076 LDA    $010b   	.....  A $00 B $02 C $00 D $05 E $02 H $03 L $10 SP 03f7
0000 0079 MOV    M,A     	.....  A $00 B $02 C $00 D $05 E $02 H $03 L $10 SP 03f7
0000 007a INX    H       	.....  A $00 B $02 C $00 D $05 E $02 H $03 L $11 SP 03f7
0000 007b LDA    $010c   	.....  A $00 B $02 C $00 D $05 E $02 H $03 L $11 SP 03f7
0000 007e MOV    M,A     	.....  A $00 B $02 C $00 D $05 E $02 H $03 L $11 SP 03f7
0000 007f INX    H       	.....  A $00 B $02 C $00 D $05 E $02 H $03 L $12 SP 03f7
0000 0080 LDA    $010d   	.....  A $04 B $02 C $00 D $05 E $02 H $03 L $12 SP 03f7
0000 0083 MOV    M,A     	.....  A $04 B $02 C $00 D $05 E $02 H $03 L $12 SP 03f7
0000 0084 POP    H       	.....  A $04 B $02 C $00 D $05 E $02 H $02 L $00 SP 03f9
0000 0085 INR    H       	..p..  A $04 B $02 C $00 D $05 E $02 H $03 L $00 SP 03f9
0000 0086 INX    H       	..p..  A $04 B $02 C $00 D $05 E $02 H $03 L $01 SP 03f9
0000 0087 INX    H       	..p..  A $04 B $02 C $00 D $05 E $02 H $03 L $02 SP 03f9
0000 0088 INX    H       	..p..  A $04 B $02 C $00 D $05 E $02 H $03 L $03 SP 03f9
0000 0089 INX    H       	..p..  A $04 B $02 C $00 D $05 E $02 H $03 L $04 SP 03f9
0000 008a INX    H       	..p..  A $04 B $02 C $00 D $05 E $02 H $03 L $05 SP 03f9
0000 008b MOV    A,M     	..p..  A $01 B $02 C $00 D $05 E $02 H $03 L $05 SP 03f9
0000 008c INX    H       	..p..  A $01 B $02 C $00 D $05 E $02 H $03 L $06 SP 03f9
0000 008d MOV    B,M     	..p..  A $01 B $00 C $00 D $05 E $02 H $03 L $06 SP 03f9
0000 008e INX    H       	..p..  A $01 B $00 C $00 D $05 E $02 H $03 L $07 SP 03f9
0000 008f MOV    C,M     	..p..  A $01 B $00 C $1b D $05 E $02 H $03 L $07 SP 03f9
0000 0090 INX    H       	..p..  A $01 B $00 C $1b D $05 E $02 H $03 L $08 SP 03f9
0000 0091 INX    H       	..p..  A $01 B $00 C $1b D $05 E $02 H $03 L $09 SP 03f9
0000 0092 INX    H       	..p..  A $01 B $00 C $1b D $05 E $02 H $03 L $0a SP 03f9
0000 0093 INX    H       	..p..  A $01 B $00 C $1b D $05 E $02 H $03 L $0b SP 03f9
0000 0094 INX    H       	..p..  A $01 B $00 C $1b D $05 E $02 H $03 L $0c SP 03f9
0000 0095 MOV    E,M     	..p..  A $01 B $00 C $1b D $05 E $fb H $03 L $0c SP 03f9
0000 0096 INX    H       	..p..  A $01 B $00 C $1b D $05 E $fb H $03 L $0d SP 03f9
0000 0097 MOV    D,M     	..p..  A $01 B $00 C $1b D $03 E $fb H $03 L $0d SP 03f9
0000 0098 XCHG           	..p..  A $01 B $00 C $1b D $03 E $0d H $03 L $fb SP 03f9
0000 0099 SPHL           	..p..  A $01 B $00 C $1b D $03 E $0d H $03 L $fb SP 03fb
0000 009a XCHG           	..p..  A $01 B $00 C $1b D $03 E $fb H $03 L $0d SP 03fb
0000 009b DCX    H       	..p..  A $01 B $00 C $1b D $03 E $fb H $03 L $0c SP 03fb
0000 009c DCX    H       	..p..  A $01 B $00 C $1b D $03 E $fb H $03 L $0b SP 03fb
0000 009d DCX    H       	..p..  A $01 B $00 C $1b D $03 E $fb H $03 L $0a SP 03fb
0000 009e DCX    H       	..p..  A $01 B $00 C $1b D $03 E $fb H $03 L $09 SP 03fb
0000 009f MOV    E,M     	..p..  A $01 B $00 C $1b D $03 E $02 H $03 L $09 SP 03fb
0000 00a0 DCX    H       	..p..  A $01 B $00 C $1b D $03 E $02 H $03 L $08 SP 03fb
0000 00a1 MOV    D,M     	..p..  A $01 B $00 C $1b D $05 E $02 H $03 L $08 SP 03fb
0000 00a2 PUSH   D       	..p..  A $01 B $00 C $1b D $05 E $02 H $03 L $08 SP 03f9
0000 00a3 INX    H       	..p..  A $01 B $00 C $1b D $05 E $02 H $03 L $09 SP 03f9
0000 00a4 INX    H       	..p..  A $01 B $00 C $1b D $05 E $02 H $03 L $0a SP 03f9
0000 00a5 MOV    D,M     	..p..  A $01 B $00 C $1b D $05 E $02 H $03 L $0a SP 03f9
0000 00a6 INX    H       	..p..  A $01 B $00 C $1b D $05 E $02 H $03 L $0b SP 03f9
0000 00a7 MOV    E,M     	..p..  A $01 B $00 C $1b D $05 E $0e H $03 L $0b SP 03f9
0000 00a8 PUSH   D       	..p..  A $01 B $00 C $1b D $05 E $0e H $03 L $0b SP 03f7
0000 00a9 INX    H       	..p..  A $01 B $00 C $1b D $05 E $0e H $03 L $0c SP 03f7
0000 00aa INX    H       	..p..  A $01 B $00 C $1b D $05 E $0e H $03 L $0d SP 03f7
0000 00ab INX    H       	..p..  A $01 B $00 C $1b D $05 E $0e H $03 L $0e SP 03f7
0000 00ac MOV    E,M     	..p..  A $01 B $00 C $1b D $05 E $57 H $03 L $0e SP 03f7
0000 00ad INX    H       	..p..  A $01 B $00 C $1b D $05 E $57 H $03 L $0f SP 03f7
0000 00ae MOV    D,M     	..p..  A $01 B $00 C $1b D $02 E $57 H $03 L $0f SP 03f7
0000 00af PUSH   D       	..p..  A $01 B $00 C $1b D $02 E $57 H $03 L $0f SP 03f5
0000 00b0 INX    H       	..p..  A $01 B $00 C $1b D $02 E $57 H $03 L $10 SP 03f5
0000 00b1 MOV    E,M     	..p..  A $01 B $00 C $1b D $02 E $00 H $03 L $10 SP 03f5
0000 00b2 INX    H       	..p..  A $01 B $00 C $1b D $02 E $00 H $03 L $11 SP 03f5
0000 00b3 MOV    D,M     	..p..  A $01 B $00 C $1b D $00 E $00 H $03 L $11 SP 03f5
0000 00b4 PUSH   D       	..p..  A $01 B $00 C $1b D $00 E $00 H $03 L $11 SP 03f3
0000 00b5 INX    H       	..p..  A $01 B $00 C $1b D $00 E $00 H $03 L $12 SP 03f3
0000 00b6 MOV    L,M     	..p..  A $01 B $00 C $1b D $00 E $00 H $03 L $04 SP 03f3
0000 00b7 MOV    H,A     	..p..  A $01 B $00 C $1b D $00 E $00 H $01 L $04 SP 03f3
0000 00b8 PUSH   H       	..p..  A $01 B $00 C $1b D $00 E $00 H $01 L $04 SP 03f1
0000 00b9 POP    PSW     	..p..  A $01 B $00 C $1b D $00 E $00 H $01 L $04 SP 03f3
0000 00ba POP    D       	..p..  A $01 B $00 C $1b D $00 E $00 H $01 L $04 SP 03f5
0000 00bb POP    H       	..p..  A $01 B $00 C $1b D $00 E $00 H $02 L $57 SP 03f7
0000 00bc EI             	..p..  A $01 B $00 C $1b D $00 E $00 H $02 L $57 SP 03f7
0000 00bd PCHL           	..p..  A $01 B $00 C $1b D $05 E $02 H $05 L $0e SP 03fb
0000 0257 INX    H       	..p..  A $01 B $00 C $1b D $05 E $02 H $05 L $0f SP 03fb
0000 0258 DCR    D       	.....  A $01 B $00 C $1b D $04 E $02 H $05 L $0f SP 03fb
0000 0259 MVI    M,#$00  	.....  A $01 B $00 C $1b D $04 E $02 H $05 L $0f SP 03fb
0000 025b INX    H       	.....  A $01 B $00 C $1b D $04 E $02 H $05 L $10 SP 03fb
0000 025c MVI    M,#$00  	.....  A $01 B $00 C $1b D $04 E $02 H $05 L $10 SP 03fb
0000 025e INX    H       	.....  A $01 B $00 C $1b D $04 E $02 H $05 L $11 SP 03fb
0000 025f MOV    M,D     	.....  A $01 B $00 C $1b D $04 E $02 H $05 L $11 SP 03fb
0000 0260 MOV    H,D     	.....  A $01 B $00 C $1b D $04 E $02 H $04 L $11 SP 03fb
0000 0261 MVI    L,#$00  	.....  A $01 B $00 C $1b D $04 E $02 H $04 L $00 SP 03fb
0000 0263 MOV    E,A     	.....  A $01 B $00 C $1b D $04 E $01 H $04 L $00 SP 03fb
0000 0264 PUSH   D       	.....  A $01 B $00 C $1b D $04 E $01 H $04 L $00 SP 03f9
Interrupt: 84
	.....  A $01 B $00 C $1b D $04 E $01 H $04 L $00 SP 03f7
0000 0028 DI             	.....  A $01 B $00 C $1b D $04 E $01 H $04 L $00 SP 03f7
0000 0029 LXI    H,#$010a	.....  A $01 B $00 C $1b D $04 E $01 H $01 L $0a SP 03f7
0000 002c MOV    B,M     	.....  A $01 B $02 C $1b D $04 E $01 H $01 L $0a SP 03f7
0000 002d LDA    $010c   	.....  A $00 B $02 C $1b D $04 E $01 H $01 L $0a SP 03f7
0000 0030 ADD    B       	.....  A $02 B $02 C $1b D $04 E $01 H $01 L $0a SP 03f7
0000 0031 MOV    B,A     	.....  A $02 B $02 C $1b D $04 E $01 H $01 L $0a SP 03f7
0000 0032 MVI    C,#$ff  	.....  A $02 B $02 C $ff D $04 E $01 H $01 L $0a SP 03f7
0000 0034 INX    B       	.....  A $02 B $03 C $00 D $04 E $01 H $01 L $0a SP 03f7
0000 0035 MOV    H,B     	.....  A $02 B $03 C $00 D $04 E $01 H $03 L $0a SP 03f7
0000 0036 MOV    L,C     	.....  A $02 B $03 C $00 D $04 E $01 H $03 L $00 SP 03f7
0000 0037 MOV    B,M     	.....  A $02 B $02 C $00 D $04 E $01 H $03 L $00 SP 03f7
0000 0038 INX    H       	.....  A $02 B $02 C $00 D $04 E $01 H $03 L $01 SP 03f7
0000 0039 MOV    C,M     	.....  A $02 B $02 C $00 D $04 E $01 H $03 L $01 SP 03f7
0000 003a PUSH   B       	.....  A $02 B $02 C $00 D $04 E $01 H $03 L $01 SP 03f5
0000 003b INX    H       	.....  A $02 B $02 C $00 D $04 E $01 H $03 L $02 SP 03f5
0000 003c INX    H       	.....  A $02 B $02 C $00 D $04 E $01 H $03 L $03 SP 03f5
0000 003d INX    H       	.....  A $02 B $02 C $00 D $04 E $01 H $03 L $04 SP 03f5
0000 003e INX    H       	.....  A $02 B $02 C $00 D $04 E $01 H $03 L $05 SP 03f5
0000 003f LDA    $0100   	.....  A $01 B $02 C $00 D $04 E $01 H $03 L $05 SP 03f5
0000 0042 MOV    M,A     	.....  A $01 B $02 C $00 D $04 E $01 H $03 L $05 SP 03f5
0000 0043 INX    H       	.....  A $01 B $02 C $00 D $04 E $01 H $03 L $06 SP 03f5
0000 0044 LDA    $0101   	.....  A $00 B $02 C $00 D $04 E $01 H $03 L $06 SP 03f5
0000 0047 MOV    M,A     	.....  A $00 B $02 C $00 D $04 E $01 H $03 L $06 SP 03f5
0000 0048 INX    H       	.....  A $00 B $02 C $00 D $04 E $01 H $03 L $07 SP 03f5
0000 0049 LDA    $0102   	.....  A $1b B $02 C $00 D $04 E $01 H $03 L $07 SP 03f5
0000 004c MOV    M,A     	.....  A $1b B $02 C $00 D $04 E $01 H $03 L $07 SP 03f5
0000 004d INX    H       	.....  A $1b B $02 C $00 D $04 E $01 H $03 L $08 SP 03f5
0000 004e LDA    $0103   	.....  A $04 B $02 C $00 D $04 E $01 H $03 L $08 SP 03f5
0000 0051 MOV    M,A     	.....  A $04 B $02 C $00 D $04 E $01 H $03 L $08 SP 03f5
0000 0052 INX    H       	.....  A $04 B $02 C $00 D $04 E $01 H $03 L $09 SP 03f5
0000 0053 LDA    $0104   	.....  A $01 B $02 C $00 D $04 E $01 H $03 L $09 SP 03f5
0000 0056 MOV    M,A     	.....  A $01 B $02 C $00 D $04 E $01 H $03 L $09 SP 03f5
0000 0057 INX    H       	.....  A $01 B $02 C $00 D $04 E $01 H $03 L $0a SP 03f5
0000 0058 LDA    $0105   	.....  A $04 B $02 C $00 D $04 E $01 H $03 L $0a SP 03f5
0000 005b MOV    M,A     	.....  A $04 B $02 C $00 D $04 E $01 H $03 L $0a SP 03f5
0000 005c INX    H       	.....  A $04 B $02 C $00 D $04 E $01 H $03 L $0b SP 03f5
0000 005d LDA    $0106   	.....  A $00 B $02 C $00 D $04 E $01 H $03 L $0b SP 03f5
0000 0060 MOV    M,A     	.....  A $00 B $02 C $00 D $04 E $01 H $03 L $0b SP 03f5
0000 0061 INX    H       	.....  A $00 B $02 C $00 D $04 E $01 H $03 L $0c SP 03f5
0000 0062 LDA    $0107   	.....  A $f9 B $02 C $00 D $04 E $01 H $03 L $0c SP 03f5
0000 0065 MOV    M,A     	.....  A $f9 B $02 C $00 D $04 E $01 H $03 L $0c SP 03f5
0000 0066 INX    H       	.....  A $f9 B $02 C $00 D $04 E $01 H $03 L $0d SP 03f5
0000 0067 LDA    $0108   	.....  A $03 B $02 C $00 D $04 E $01 H $03 L $0d SP 03f5
0000 006a MOV    M,A     	.....  A $03 B $02 C $00 D $04 E $01 H $03 L $0d SP 03f5
0000 006b INX    H       	.....  A $03 B $02 C $00 D $04 E $01 H $03 L $0e SP 03f5
0000 006c LDA    $0109   	.....  A $65 B $02 C $00 D $04 E $01 H $03 L $0e SP 03f5
0000 006f MOV    M,A     	.....  A $65 B $02 C $00 D $04 E $01 H $03 L $0e SP 03f5
0000 0070 INX    H       	.....  A $65 B $02 C $00 D $04 E $01 H $03 L $0f SP 03f5
0000 0071 LDA    $010a   	.....  A $02 B $02 C $00 D $04 E $01 H $03 L $0f SP 03f5
0000 0074 MOV    M,A     	.....  A $02 B $02 C $00 D $04 E $01 H $03 L $0f SP 03f5
0000 0075 INX    H       	.....  A $02 B $02 C $00 D $04 E $01 H $03 L $10 SP 03f5
0000 0076 LDA    $010b   	.....  A $00 B $02 C $00 D $04 E $01 H $03 L $10 SP 03f5
0000 0079 MOV    M,A     	.....  A $00 B $02 C $00 D $04 E $01 H $03 L $10 SP 03f5
0000 007a INX    H       	.....  A $00 B $02 C $00 D $04 E $01 H $03 L $11 SP 03f5
0000 007b LDA    $010c   	.....  A $00 B $02 C $00 D $04 E $01 H $03 L $11 SP 03f5
0000 007e MOV    M,A     	.....  A $00 B $02 C $00 D $04 E $01 H $03 L $11 SP 03f5
0000 007f INX    H       	.....  A $00 B $02 C $00 D $04 E $01 H $03 L $12 SP 03f5
0000 0080 LDA    $010d   	.....  A $00 B $02 C $00 D $04 E $01 H $03 L $12 SP 03f5
0000 0083 MOV    M,A     	.....  A $00 B $02 C $00 D $04 E $01 H $03 L $12 SP 03f5
0000 0084 POP    H       	.....  A $00 B $02 C $00 D $04 E $01 H $02 L $00 SP 03f7
0000 0085 INR    H       	..p..  A $00 B $02 C $00 D $04 E $01 H $03 L $00 SP 03f7
0000 0086 INX    H       	..p..  A $00 B $02 C $00 D $04 E $01 H $03 L $01 SP 03f7
0000 0087 INX    H       	..p..  A $00 B $02 C $00 D $04 E $01 H $03 L $02 SP 03f7
0000 0088 INX    H       	..p..  A $00 B $02 C $00 D $04 E $01 H $03 L $03 SP 03f7
0000 0089 INX    H       	..p..  A $00 B $02 C $00 D $04 E $01 H $03 L $04 SP 03f7
0000 008a INX    H       	..p..  A $00 B $02 C $00 D $04 E $01 H $03 L $05 SP 03f7
0000 008b MOV    A,M     	..p..  A $01 B $02 C $00 D $04 E $01 H $03 L $05 SP 03f7
0000 008c INX    H       	..p..  A $01 B $02 C $00 D $04 E $01 H $03 L $06 SP 03f7
0000 008d MOV    B,M     	..p..  A $01 B $00 C $00 D $04 E $01 H $03 L $06 SP 03f7
0000 008e INX    H       	..p..  A $01 B $00 C $00 D $04 E $01 H $03 L $07 SP 03f7
0000 008f MOV    C,M     	..p..  A $01 B $00 C $1b D $04 E $01 H $03 L $07 SP 03f7
0000 0090 INX    H       	..p..  A $01 B $00 C $1b D $04 E $01 H $03 L $08 SP 03f7
0000 0091 INX    H       	..p..  A $01 B $00 C $1b D $04 E $01 H $03 L $09 SP 03f7
0000 0092 INX    H       	..p..  A $01 B $00 C $1b D $04 E $01 H $03 L $0a SP 03f7
0000 0093 INX    H       	..p..  A $01 B $00 C $1b D $04 E $01 H $03 L $0b SP 03f7
0000 0094 INX    H       	..p..  A $01 B $00 C $1b D $04 E $01 H $03 L $0c SP 03f7
0000 0095 MOV    E,M     	..p..  A $01 B $00 C $1b D $04 E $f9 H $03 L $0c SP 03f7
0000 0096 INX    H       	..p..  A $01 B $00 C $1b D $04 E $f9 H $03 L $0d SP 03f7
0000 0097 MOV    D,M     	..p..  A $01 B $00 C $1b D $03 E $f9 H $03 L $0d SP 03f7
0000 0098 XCHG           	..p..  A $01 B $00 C $1b D $03 E $0d H $03 L $f9 SP 03f7
0000 0099 SPHL           	..p..  A $01 B $00 C $1b D $03 E $0d H $03 L $f9 SP 03f9
0000 009a XCHG           	..p..  A $01 B $00 C $1b D $03 E $f9 H $03 L $0d SP 03f9
0000 009b DCX    H       	..p..  A $01 B $00 C $1b D $03 E $f9 H $03 L $0c SP 03f9
0000 009c DCX    H       	..p..  A $01 B $00 C $1b D $03 E $f9 H $03 L $0b SP 03f9
0000 009d DCX    H       	..p..  A $01 B $00 C $1b D $03 E $f9 H $03 L $0a SP 03f9
0000 009e DCX    H       	..p..  A $01 B $00 C $1b D $03 E $f9 H $03 L $09 SP 03f9
0000 009f MOV    E,M     	..p..  A $01 B $00 C $1b D $03 E $01 H $03 L $09 SP 03f9
0000 00a0 DCX    H       	..p..  A $01 B $00 C $1b D $03 E $01 H $03 L $08 SP 03f9
0000 00a1 MOV    D,M     	..p..  A $01 B $00 C $1b D $04 E $01 H $03 L $08 SP 03f9
0000 00a2 PUSH   D       	..p..  A $01 B $00 C $1b D $04 E $01 H $03 L $08 SP 03f7
0000 00a3 INX    H       	..p..  A $01 B $00 C $1b D $04 E $01 H $03 L $09 SP 03f7
0000 00a4 INX    H       	..p..  A $01 B $00 C $1b D $04 E $01 H $03 L $0a SP 03f7
0000 00a5 MOV    D,M     	..p..  A $01 B $00 C $1b D $04 E $01 H $03 L $0a SP 03f7
0000 00a6 INX    H       	..p..  A $01 B $00 C $1b D $04 E $01 H $03 L $0b SP 03f7
0000 00a7 MOV    E,M     	..p..  A $01 B $00 C $1b D $04 E $00 H $03 L $0b SP 03f7
0000 00a8 PUSH   D       	..p..  A $01 B $00 C $1b D $04 E $00 H $03 L $0b SP 03f5
0000 00a9 INX    H       	..p..  A $01 B $00 C $1b D $04 E $00 H $03 L $0c SP 03f5
0000 00aa INX    H       	..p..  A $01 B $00 C $1b D $04 E $00 H $03 L $0d SP 03f5
0000 00ab INX    H       	..p..  A $01 B $00 C $1b D $04 E $00 H $03 L $0e SP 03f5
0000 00ac MOV    E,M     	..p..  A $01 B $00 C $1b D $04 E $65 H $03 L $0e SP 03f5
0000 00ad INX    H       	..p..  A $01 B $00 C $1b D $04 E $65 H $03 L $0f SP 03f5
0000 00ae MOV    D,M     	..p..  A $01 B $00 C $1b D $02 E $65 H $03 L $0f SP 03f5
0000 00af PUSH   D       	..p..  A $01 B $00 C $1b D $02 E $65 H $03 L $0f SP 03f3
0000 00b0 INX    H       	..p..  A $01 B $00 C $1b D $02 E $65 H $03 L $10 SP 03f3
0000 00b1 MOV    E,M     	..p..  A $01 B $00 C $1b D $02 E $00 H $03 L $10 SP 03f3
0000 00b2 INX    H       	..p..  A $01 B $00 C $1b D $02 E $00 H $03 L $11 SP 03f3
0000 00b3 MOV    D,M     	..p..  A $01 B $00 C $1b D $00 E $00 H $03 L $11 SP 03f3
0000 00b4 PUSH   D       	..p..  A $01 B $00 C $1b D $00 E $00 H $03 L $11 SP 03f1
0000 00b5 INX    H       	..p..  A $01 B $00 C $1b D $00 E $00 H $03 L $12 SP 03f1
0000 00b6 MOV    L,M     	..p..  A $01 B $00 C $1b D $00 E $00 H $03 L $00 SP 03f1
0000 00b7 MOV    H,A     	..p..  A $01 B $00 C $1b D $00 E $00 H $01 L $00 SP 03f1
0000 00b8 PUSH   H       	..p..  A $01 B $00 C $1b D $00 E $00 H $01 L $00 SP 03ef
0000 00b9 POP    PSW     	.....  A $01 B $00 C $1b D $00 E $00 H $01 L $00 SP 03f1
0000 00ba POP    D       	.....  A $01 B $00 C $1b D $00 E $00 H $01 L $00 SP 03f3
0000 00bb POP    H       	.....  A $01 B $00 C $1b D $00 E $00 H $02 L $65 SP 03f5
0000 00bc EI             	.....  A $01 B $00 C $1b D $00 E $00 H $02 L $65 SP 03f5
0000 00bd PCHL           	.....  A $01 B $00 C $1b D $04 E $01 H $04 L $00 SP 03f9
0000 0265 MVI    A,#$05  	.....  A $05 B $00 C $1b D $04 E $01 H $04 L $00 SP 03f9
0000 0267 DI             	.....  A $05 B $00 C $1b D $04 E $01 H $04 L $00 SP 03f9
0000 0268 EI             	.....  A $05 B $00 C $1b D $04 E $01 H $04 L $00 SP 03f9
0000 0269 CALL   $0007   	.....  A $05 B $00 C $1b D $04 E $01 H $04 L $00 SP 03f7

Caller pc: 620
1280: 2
1281: 0
1282: 1
1283: 0
1284: 27
1285: 0
1286: 0
1287: 0
1288: 0
1289: 0
1290: 0
1291: 0
1292: 255
1293: 5
1294: 0
1295: 0
1296: 0
1297: 4
1298: 0
1299: 0
	.....  A $05 B $00 C $1b D $04 E $01 H $04 L $00 SP 03f7
0000 0028 DI             	.....  A $05 B $00 C $1b D $04 E $01 H $04 L $00 SP 03f7
0000 0029 LXI    H,#$010a	.....  A $05 B $00 C $1b D $04 E $01 H $01 L $0a SP 03f7
0000 002c MOV    B,M     	.....  A $05 B $02 C $1b D $04 E $01 H $01 L $0a SP 03f7
0000 002d LDA    $010c   	.....  A $00 B $02 C $1b D $04 E $01 H $01 L $0a SP 03f7
0000 0030 ADD    B       	.....  A $02 B $02 C $1b D $04 E $01 H $01 L $0a SP 03f7
0000 0031 MOV    B,A     	.....  A $02 B $02 C $1b D $04 E $01 H $01 L $0a SP 03f7
0000 0032 MVI    C,#$ff  	.....  A $02 B $02 C $ff D $04 E $01 H $01 L $0a SP 03f7
0000 0034 INX    B       	.....  A $02 B $03 C $00 D $04 E $01 H $01 L $0a SP 03f7
0000 0035 MOV    H,B     	.....  A $02 B $03 C $00 D $04 E $01 H $03 L $0a SP 03f7
0000 0036 MOV    L,C     	.....  A $02 B $03 C $00 D $04 E $01 H $03 L $00 SP 03f7
0000 0037 MOV    B,M     	.....  A $02 B $02 C $00 D $04 E $01 H $03 L $00 SP 03f7
0000 0038 INX    H       	.....  A $02 B $02 C $00 D $04 E $01 H $03 L $01 SP 03f7
0000 0039 MOV    C,M     	.....  A $02 B $02 C $00 D $04 E $01 H $03 L $01 SP 03f7
0000 003a PUSH   B       	.....  A $02 B $02 C $00 D $04 E $01 H $03 L $01 SP 03f5
0000 003b INX    H       	.....  A $02 B $02 C $00 D $04 E $01 H $03 L $02 SP 03f5
0000 003c INX    H       	.....  A $02 B $02 C $00 D $04 E $01 H $03 L $03 SP 03f5
0000 003d INX    H       	.....  A $02 B $02 C $00 D $04 E $01 H $03 L $04 SP 03f5
0000 003e INX    H       	.....  A $02 B $02 C $00 D $04 E $01 H $03 L $05 SP 03f5
0000 003f LDA    $0100   	.....  A $05 B $02 C $00 D $04 E $01 H $03 L $05 SP 03f5
0000 0042 MOV    M,A     	.....  A $05 B $02 C $00 D $04 E $01 H $03 L $05 SP 03f5
0000 0043 INX    H       	.....  A $05 B $02 C $00 D $04 E $01 H $03 L $06 SP 03f5
0000 0044 LDA    $0101   	.....  A $00 B $02 C $00 D $04 E $01 H $03 L $06 SP 03f5
0000 0047 MOV    M,A     	.....  A $00 B $02 C $00 D $04 E $01 H $03 L $06 SP 03f5
0000 0048 INX    H       	.....  A $00 B $02 C $00 D $04 E $01 H $03 L $07 SP 03f5
0000 0049 LDA    $0102   	.....  A $1b B $02 C $00 D $04 E $01 H $03 L $07 SP 03f5
0000 004c MOV    M,A     	.....  A $1b B $02 C $00 D $04 E $01 H $03 L $07 SP 03f5
0000 004d INX    H       	.....  A $1b B $02 C $00 D $04 E $01 H $03 L $08 SP 03f5
0000 004e LDA    $0103   	.....  A $04 B $02 C $00 D $04 E $01 H $03 L $08 SP 03f5
0000 0051 MOV    M,A     	.....  A $04 B $02 C $00 D $04 E $01 H $03 L $08 SP 03f5
0000 0052 INX    H       	.....  A $04 B $02 C $00 D $04 E $01 H $03 L $09 SP 03f5
0000 0053 LDA    $0104   	.....  A $01 B $02 C $00 D $04 E $01 H $03 L $09 SP 03f5
0000 0056 MOV    M,A     	.....  A $01 B $02 C $00 D $04 E $01 H $03 L $09 SP 03f5
0000 0057 INX    H       	.....  A $01 B $02 C $00 D $04 E $01 H $03 L $0a SP 03f5
0000 0058 LDA    $0105   	.....  A $04 B $02 C $00 D $04 E $01 H $03 L $0a SP 03f5
0000 005b MOV    M,A     	.....  A $04 B $02 C $00 D $04 E $01 H $03 L $0a SP 03f5
0000 005c INX    H       	.....  A $04 B $02 C $00 D $04 E $01 H $03 L $0b SP 03f5
0000 005d LDA    $0106   	.....  A $00 B $02 C $00 D $04 E $01 H $03 L $0b SP 03f5
0000 0060 MOV    M,A     	.....  A $00 B $02 C $00 D $04 E $01 H $03 L $0b SP 03f5
0000 0061 INX    H       	.....  A $00 B $02 C $00 D $04 E $01 H $03 L $0c SP 03f5
0000 0062 LDA    $0107   	.....  A $f9 B $02 C $00 D $04 E $01 H $03 L $0c SP 03f5
0000 0065 MOV    M,A     	.....  A $f9 B $02 C $00 D $04 E $01 H $03 L $0c SP 03f5
0000 0066 INX    H       	.....  A $f9 B $02 C $00 D $04 E $01 H $03 L $0d SP 03f5
0000 0067 LDA    $0108   	.....  A $03 B $02 C $00 D $04 E $01 H $03 L $0d SP 03f5
0000 006a MOV    M,A     	.....  A $03 B $02 C $00 D $04 E $01 H $03 L $0d SP 03f5
0000 006b INX    H       	.....  A $03 B $02 C $00 D $04 E $01 H $03 L $0e SP 03f5
0000 006c LDA    $0109   	.....  A $6c B $02 C $00 D $04 E $01 H $03 L $0e SP 03f5
0000 006f MOV    M,A     	.....  A $6c B $02 C $00 D $04 E $01 H $03 L $0e SP 03f5
0000 0070 INX    H       	.....  A $6c B $02 C $00 D $04 E $01 H $03 L $0f SP 03f5
0000 0071 LDA    $010a   	.....  A $02 B $02 C $00 D $04 E $01 H $03 L $0f SP 03f5
0000 0074 MOV    M,A     	.....  A $02 B $02 C $00 D $04 E $01 H $03 L $0f SP 03f5
0000 0075 INX    H       	.....  A $02 B $02 C $00 D $04 E $01 H $03 L $10 SP 03f5
0000 0076 LDA    $010b   	.....  A $00 B $02 C $00 D $04 E $01 H $03 L $10 SP 03f5
0000 0079 MOV    M,A     	.....  A $00 B $02 C $00 D $04 E $01 H $03 L $10 SP 03f5
0000 007a INX    H       	.....  A $00 B $02 C $00 D $04 E $01 H $03 L $11 SP 03f5
0000 007b LDA    $010c   	.....  A $00 B $02 C $00 D $04 E $01 H $03 L $11 SP 03f5
0000 007e MOV    M,A     	.....  A $00 B $02 C $00 D $04 E $01 H $03 L $11 SP 03f5
0000 007f INX    H       	.....  A $00 B $02 C $00 D $04 E $01 H $03 L $12 SP 03f5
0000 0080 LDA    $010d   	.....  A $00 B $02 C $00 D $04 E $01 H $03 L $12 SP 03f5
0000 0083 MOV    M,A     	.....  A $00 B $02 C $00 D $04 E $01 H $03 L $12 SP 03f5
0000 0084 POP    H       	.....  A $00 B $02 C $00 D $04 E $01 H $02 L $00 SP 03f7
0000 0085 INR    H       	..p..  A $00 B $02 C $00 D $04 E $01 H $03 L $00 SP 03f7
0000 0086 INX    H       	..p..  A $00 B $02 C $00 D $04 E $01 H $03 L $01 SP 03f7
0000 0087 INX    H       	..p..  A $00 B $02 C $00 D $04 E $01 H $03 L $02 SP 03f7
0000 0088 INX    H       	..p..  A $00 B $02 C $00 D $04 E $01 H $03 L $03 SP 03f7
0000 0089 INX    H       	..p..  A $00 B $02 C $00 D $04 E $01 H $03 L $04 SP 03f7
0000 008a INX    H       	..p..  A $00 B $02 C $00 D $04 E $01 H $03 L $05 SP 03f7
0000 008b MOV    A,M     	..p..  A $05 B $02 C $00 D $04 E $01 H $03 L $05 SP 03f7
0000 008c INX    H       	..p..  A $05 B $02 C $00 D $04 E $01 H $03 L $06 SP 03f7
0000 008d MOV    B,M     	..p..  A $05 B $00 C $00 D $04 E $01 H $03 L $06 SP 03f7
0000 008e INX    H       	..p..  A $05 B $00 C $00 D $04 E $01 H $03 L $07 SP 03f7
0000 008f MOV    C,M     	..p..  A $05 B $00 C $1b D $04 E $01 H $03 L $07 SP 03f7
0000 0090 INX    H       	..p..  A $05 B $00 C $1b D $04 E $01 H $03 L $08 SP 03f7
0000 0091 INX    H       	..p..  A $05 B $00 C $1b D $04 E $01 H $03 L $09 SP 03f7
0000 0092 INX    H       	..p..  A $05 B $00 C $1b D $04 E $01 H $03 L $0a SP 03f7
0000 0093 INX    H       	..p..  A $05 B $00 C $1b D $04 E $01 H $03 L $0b SP 03f7
0000 0094 INX    H       	..p..  A $05 B $00 C $1b D $04 E $01 H $03 L $0c SP 03f7
0000 0095 MOV    E,M     	..p..  A $05 B $00 C $1b D $04 E $f9 H $03 L $0c SP 03f7
0000 0096 INX    H       	..p..  A $05 B $00 C $1b D $04 E $f9 H $03 L $0d SP 03f7
0000 0097 MOV    D,M     	..p..  A $05 B $00 C $1b D $03 E $f9 H $03 L $0d SP 03f7
0000 0098 XCHG           	..p..  A $05 B $00 C $1b D $03 E $0d H $03 L $f9 SP 03f7
0000 0099 SPHL           	..p..  A $05 B $00 C $1b D $03 E $0d H $03 L $f9 SP 03f9
0000 009a XCHG           	..p..  A $05 B $00 C $1b D $03 E $f9 H $03 L $0d SP 03f9
0000 009b DCX    H       	..p..  A $05 B $00 C $1b D $03 E $f9 H $03 L $0c SP 03f9
0000 009c DCX    H       	..p..  A $05 B $00 C $1b D $03 E $f9 H $03 L $0b SP 03f9
0000 009d DCX    H       	..p..  A $05 B $00 C $1b D $03 E $f9 H $03 L $0a SP 03f9
0000 009e DCX    H       	..p..  A $05 B $00 C $1b D $03 E $f9 H $03 L $09 SP 03f9
0000 009f MOV    E,M     	..p..  A $05 B $00 C $1b D $03 E $01 H $03 L $09 SP 03f9
0000 00a0 DCX    H       	..p..  A $05 B $00 C $1b D $03 E $01 H $03 L $08 SP 03f9
0000 00a1 MOV    D,M     	..p..  A $05 B $00 C $1b D $04 E $01 H $03 L $08 SP 03f9
0000 00a2 PUSH   D       	..p..  A $05 B $00 C $1b D $04 E $01 H $03 L $08 SP 03f7
0000 00a3 INX    H       	..p..  A $05 B $00 C $1b D $04 E $01 H $03 L $09 SP 03f7
0000 00a4 INX    H       	..p..  A $05 B $00 C $1b D $04 E $01 H $03 L $0a SP 03f7
0000 00a5 MOV    D,M     	..p..  A $05 B $00 C $1b D $04 E $01 H $03 L $0a SP 03f7
0000 00a6 INX    H       	..p..  A $05 B $00 C $1b D $04 E $01 H $03 L $0b SP 03f7
0000 00a7 MOV    E,M     	..p..  A $05 B $00 C $1b D $04 E $00 H $03 L $0b SP 03f7
0000 00a8 PUSH   D       	..p..  A $05 B $00 C $1b D $04 E $00 H $03 L $0b SP 03f5
0000 00a9 INX    H       	..p..  A $05 B $00 C $1b D $04 E $00 H $03 L $0c SP 03f5
0000 00aa INX    H       	..p..  A $05 B $00 C $1b D $04 E $00 H $03 L $0d SP 03f5
0000 00ab INX    H       	..p..  A $05 B $00 C $1b D $04 E $00 H $03 L $0e SP 03f5
0000 00ac MOV    E,M     	..p..  A $05 B $00 C $1b D $04 E $6c H $03 L $0e SP 03f5
0000 00ad INX    H       	..p..  A $05 B $00 C $1b D $04 E $6c H $03 L $0f SP 03f5
0000 00ae MOV    D,M     	..p..  A $05 B $00 C $1b D $02 E $6c H $03 L $0f SP 03f5
0000 00af PUSH   D       	..p..  A $05 B $00 C $1b D $02 E $6c H $03 L $0f SP 03f3
0000 00b0 INX    H       	..p..  A $05 B $00 C $1b D $02 E $6c H $03 L $10 SP 03f3
0000 00b1 MOV    E,M     	..p..  A $05 B $00 C $1b D $02 E $00 H $03 L $10 SP 03f3
0000 00b2 INX    H       	..p..  A $05 B $00 C $1b D $02 E $00 H $03 L $11 SP 03f3
0000 00b3 MOV    D,M     	..p..  A $05 B $00 C $1b D $00 E $00 H $03 L $11 SP 03f3
0000 00b4 PUSH   D       	..p..  A $05 B $00 C $1b D $00 E $00 H $03 L $11 SP 03f1
0000 00b5 INX    H       	..p..  A $05 B $00 C $1b D $00 E $00 H $03 L $12 SP 03f1
0000 00b6 MOV    L,M     	..p..  A $05 B $00 C $1b D $00 E $00 H $03 L $00 SP 03f1
0000 00b7 MOV    H,A     	..p..  A $05 B $00 C $1b D $00 E $00 H $05 L $00 SP 03f1
0000 00b8 PUSH   H       	..p..  A $05 B $00 C $1b D $00 E $00 H $05 L $00 SP 03ef
0000 00b9 POP    PSW     	.....  A $05 B $00 C $1b D $00 E $00 H $05 L $00 SP 03f1
0000 00ba POP    D       	.....  A $05 B $00 C $1b D $00 E $00 H $05 L $00 SP 03f3
0000 00bb POP    H       	.....  A $05 B $00 C $1b D $00 E $00 H $02 L $6c SP 03f5
0000 00bc EI             	.....  A $05 B $00 C $1b D $00 E $00 H $02 L $6c SP 03f5
0000 00bd PCHL           	.....  A $05 B $00 C $1b D $04 E $01 H $04 L $00 SP 03f9
0000 026c POP    D       	.....  A $05 B $00 C $1b D $04 E $01 H $04 L $00 SP 03fb
0000 026d MOV    B,E     	.....  A $05 B $01 C $1b D $04 E $01 H $04 L $00 SP 03fb
0000 026e INR    B       	.....  A $05 B $02 C $1b D $04 E $01 H $04 L $00 SP 03fb
0000 026f DCR    H       	..p..  A $05 B $02 C $1b D $04 E $01 H $03 L $00 SP 03fb
0000 0270 MOV    M,D     	..p..  A $05 B $02 C $1b D $04 E $01 H $03 L $00 SP 03fb
0000 0271 JMP    $0226   	..p..  A $05 B $02 C $1b D $04 E $01 H $03 L $00 SP 03fb
0000 0226 MVI    A,#$03  	..p..  A $03 B $02 C $1b D $04 E $01 H $03 L $00 SP 03fb
0000 0228 CMP    B       	.....  A $03 B $02 C $1b D $04 E $01 H $03 L $00 SP 03fb
0000 0229 JZ     $0274   	.....  A $03 B $02 C $1b D $04 E $01 H $03 L $00 SP 03fb
0000 022c MVI    D,#$02  	.....  A $03 B $02 C $1b D $02 E $01 H $03 L $00 SP 03fb
0000 022e MVI    E,#$00  	.....  A $03 B $02 C $1b D $02 E $00 H $03 L $00 SP 03fb
Interrupt: 86
	.....  A $03 B $02 C $1b D $02 E $00 H $03 L $00 SP 03f9
0000 0028 DI             	.....  A $03 B $02 C $1b D $02 E $00 H $03 L $00 SP 03f9
0000 0029 LXI    H,#$010a	.....  A $03 B $02 C $1b D $02 E $00 H $01 L $0a SP 03f9
0000 002c MOV    B,M     	.....  A $03 B $02 C $1b D $02 E $00 H $01 L $0a SP 03f9
0000 002d LDA    $010c   	.....  A $00 B $02 C $1b D $02 E $00 H $01 L $0a SP 03f9
0000 0030 ADD    B       	.....  A $02 B $02 C $1b D $02 E $00 H $01 L $0a SP 03f9
0000 0031 MOV    B,A     	.....  A $02 B $02 C $1b D $02 E $00 H $01 L $0a SP 03f9
0000 0032 MVI    C,#$ff  	.....  A $02 B $02 C $ff D $02 E $00 H $01 L $0a SP 03f9
0000 0034 INX    B       	.....  A $02 B $03 C $00 D $02 E $00 H $01 L $0a SP 03f9
0000 0035 MOV    H,B     	.....  A $02 B $03 C $00 D $02 E $00 H $03 L $0a SP 03f9
0000 0036 MOV    L,C     	.....  A $02 B $03 C $00 D $02 E $00 H $03 L $00 SP 03f9
0000 0037 MOV    B,M     	.....  A $02 B $04 C $00 D $02 E $00 H $03 L $00 SP 03f9
0000 0038 INX    H       	.....  A $02 B $04 C $00 D $02 E $00 H $03 L $01 SP 03f9
0000 0039 MOV    C,M     	.....  A $02 B $04 C $00 D $02 E $00 H $03 L $01 SP 03f9
0000 003a PUSH   B       	.....  A $02 B $04 C $00 D $02 E $00 H $03 L $01 SP 03f7
0000 003b INX    H       	.....  A $02 B $04 C $00 D $02 E $00 H $03 L $02 SP 03f7
0000 003c INX    H       	.....  A $02 B $04 C $00 D $02 E $00 H $03 L $03 SP 03f7
0000 003d INX    H       	.....  A $02 B $04 C $00 D $02 E $00 H $03 L $04 SP 03f7
0000 003e INX    H       	.....  A $02 B $04 C $00 D $02 E $00 H $03 L $05 SP 03f7
0000 003f LDA    $0100   	.....  A $03 B $04 C $00 D $02 E $00 H $03 L $05 SP 03f7
0000 0042 MOV    M,A     	.....  A $03 B $04 C $00 D $02 E $00 H $03 L $05 SP 03f7
0000 0043 INX    H       	.....  A $03 B $04 C $00 D $02 E $00 H $03 L $06 SP 03f7
0000 0044 LDA    $0101   	.....  A $02 B $04 C $00 D $02 E $00 H $03 L $06 SP 03f7
0000 0047 MOV    M,A     	.....  A $02 B $04 C $00 D $02 E $00 H $03 L $06 SP 03f7
0000 0048 INX    H       	.....  A $02 B $04 C $00 D $02 E $00 H $03 L $07 SP 03f7
0000 0049 LDA    $0102   	.....  A $1b B $04 C $00 D $02 E $00 H $03 L $07 SP 03f7
0000 004c MOV    M,A     	.....  A $1b B $04 C $00 D $02 E $00 H $03 L $07 SP 03f7
0000 004d INX    H       	.....  A $1b B $04 C $00 D $02 E $00 H $03 L $08 SP 03f7
0000 004e LDA    $0103   	.....  A $02 B $04 C $00 D $02 E $00 H $03 L $08 SP 03f7
0000 0051 MOV    M,A     	.....  A $02 B $04 C $00 D $02 E $00 H $03 L $08 SP 03f7
0000 0052 INX    H       	.....  A $02 B $04 C $00 D $02 E $00 H $03 L $09 SP 03f7
0000 0053 LDA    $0104   	.....  A $00 B $04 C $00 D $02 E $00 H $03 L $09 SP 03f7
0000 0056 MOV    M,A     	.....  A $00 B $04 C $00 D $02 E $00 H $03 L $09 SP 03f7
0000 0057 INX    H       	.....  A $00 B $04 C $00 D $02 E $00 H $03 L $0a SP 03f7
0000 0058 LDA    $0105   	.....  A $03 B $04 C $00 D $02 E $00 H $03 L $0a SP 03f7
0000 005b MOV    M,A     	.....  A $03 B $04 C $00 D $02 E $00 H $03 L $0a SP 03f7
0000 005c INX    H       	.....  A $03 B $04 C $00 D $02 E $00 H $03 L $0b SP 03f7
0000 005d LDA    $0106   	.....  A $00 B $04 C $00 D $02 E $00 H $03 L $0b SP 03f7
0000 0060 MOV    M,A     	.....  A $00 B $04 C $00 D $02 E $00 H $03 L $0b SP 03f7
0000 0061 INX    H       	.....  A $00 B $04 C $00 D $02 E $00 H $03 L $0c SP 03f7
0000 0062 LDA    $0107   	.....  A $fb B $04 C $00 D $02 E $00 H $03 L $0c SP 03f7
0000 0065 MOV    M,A     	.....  A $fb B $04 C $00 D $02 E $00 H $03 L $0c SP 03f7
0000 0066 INX    H       	.....  A $fb B $04 C $00 D $02 E $00 H $03 L $0d SP 03f7
0000 0067 LDA    $0108   	.....  A $03 B $04 C $00 D $02 E $00 H $03 L $0d SP 03f7
0000 006a MOV    M,A     	.....  A $03 B $04 C $00 D $02 E $00 H $03 L $0d SP 03f7
0000 006b INX    H       	.....  A $03 B $04 C $00 D $02 E $00 H $03 L $0e SP 03f7
0000 006c LDA    $0109   	.....  A $30 B $04 C $00 D $02 E $00 H $03 L $0e SP 03f7
0000 006f MOV    M,A     	.....  A $30 B $04 C $00 D $02 E $00 H $03 L $0e SP 03f7
0000 0070 INX    H       	.....  A $30 B $04 C $00 D $02 E $00 H $03 L $0f SP 03f7
0000 0071 LDA    $010a   	.....  A $02 B $04 C $00 D $02 E $00 H $03 L $0f SP 03f7
0000 0074 MOV    M,A     	.....  A $02 B $04 C $00 D $02 E $00 H $03 L $0f SP 03f7
0000 0075 INX    H       	.....  A $02 B $04 C $00 D $02 E $00 H $03 L $10 SP 03f7
0000 0076 LDA    $010b   	.....  A $00 B $04 C $00 D $02 E $00 H $03 L $10 SP 03f7
0000 0079 MOV    M,A     	.....  A $00 B $04 C $00 D $02 E $00 H $03 L $10 SP 03f7
0000 007a INX    H       	.....  A $00 B $04 C $00 D $02 E $00 H $03 L $11 SP 03f7
0000 007b LDA    $010c   	.....  A $00 B $04 C $00 D $02 E $00 H $03 L $11 SP 03f7
0000 007e MOV    M,A     	.....  A $00 B $04 C $00 D $02 E $00 H $03 L $11 SP 03f7
0000 007f INX    H       	.....  A $00 B $04 C $00 D $02 E $00 H $03 L $12 SP 03f7
0000 0080 LDA    $010d   	.....  A $00 B $04 C $00 D $02 E $00 H $03 L $12 SP 03f7
0000 0083 MOV    M,A     	.....  A $00 B $04 C $00 D $02 E $00 H $03 L $12 SP 03f7
0000 0084 POP    H       	.....  A $00 B $04 C $00 D $02 E $00 H $04 L $00 SP 03f9
0000 0085 INR    H       	..p..  A $00 B $04 C $00 D $02 E $00 H $05 L $00 SP 03f9
0000 0086 INX    H       	..p..  A $00 B $04 C $00 D $02 E $00 H $05 L $01 SP 03f9
0000 0087 INX    H       	..p..  A $00 B $04 C $00 D $02 E $00 H $05 L $02 SP 03f9
0000 0088 INX    H       	..p..  A $00 B $04 C $00 D $02 E $00 H $05 L $03 SP 03f9
0000 0089 INX    H       	..p..  A $00 B $04 C $00 D $02 E $00 H $05 L $04 SP 03f9
0000 008a INX    H       	..p..  A $00 B $04 C $00 D $02 E $00 H $05 L $05 SP 03f9
0000 008b MOV    A,M     	..p..  A $00 B $04 C $00 D $02 E $00 H $05 L $05 SP 03f9
0000 008c INX    H       	..p..  A $00 B $04 C $00 D $02 E $00 H $05 L $06 SP 03f9
0000 008d MOV    B,M     	..p..  A $00 B $00 C $00 D $02 E $00 H $05 L $06 SP 03f9
0000 008e INX    H       	..p..  A $00 B $00 C $00 D $02 E $00 H $05 L $07 SP 03f9
0000 008f MOV    C,M     	..p..  A $00 B $00 C $00 D $02 E $00 H $05 L $07 SP 03f9
0000 0090 INX    H       	..p..  A $00 B $00 C $00 D $02 E $00 H $05 L $08 SP 03f9
0000 0091 INX    H       	..p..  A $00 B $00 C $00 D $02 E $00 H $05 L $09 SP 03f9
0000 0092 INX    H       	..p..  A $00 B $00 C $00 D $02 E $00 H $05 L $0a SP 03f9
0000 0093 INX    H       	..p..  A $00 B $00 C $00 D $02 E $00 H $05 L $0b SP 03f9
0000 0094 INX    H       	..p..  A $00 B $00 C $00 D $02 E $00 H $05 L $0c SP 03f9
0000 0095 MOV    E,M     	..p..  A $00 B $00 C $00 D $02 E $ff H $05 L $0c SP 03f9
0000 0096 INX    H       	..p..  A $00 B $00 C $00 D $02 E $ff H $05 L $0d SP 03f9
0000 0097 MOV    D,M     	..p..  A $00 B $00 C $00 D $05 E $ff H $05 L $0d SP 03f9
0000 0098 XCHG           	..p..  A $00 B $00 C $00 D $05 E $0d H $05 L $ff SP 03f9
0000 0099 SPHL           	..p..  A $00 B $00 C $00 D $05 E $0d H $05 L $ff SP 05ff
0000 009a XCHG           	..p..  A $00 B $00 C $00 D $05 E $ff H $05 L $0d SP 05ff
0000 009b DCX    H       	..p..  A $00 B $00 C $00 D $05 E $ff H $05 L $0c SP 05ff
0000 009c DCX    H       	..p..  A $00 B $00 C $00 D $05 E $ff H $05 L $0b SP 05ff
0000 009d DCX    H       	..p..  A $00 B $00 C $00 D $05 E $ff H $05 L $0a SP 05ff
0000 009e DCX    H       	..p..  A $00 B $00 C $00 D $05 E $ff H $05 L $09 SP 05ff
0000 009f MOV    E,M     	..p..  A $00 B $00 C $00 D $05 E $00 H $05 L $09 SP 05ff
0000 00a0 DCX    H       	..p..  A $00 B $00 C $00 D $05 E $00 H $05 L $08 SP 05ff
0000 00a1 MOV    D,M     	..p..  A $00 B $00 C $00 D $00 E $00 H $05 L $08 SP 05ff
0000 00a2 PUSH   D       	..p..  A $00 B $00 C $00 D $00 E $00 H $05 L $08 SP 05fd
0000 00a3 INX    H       	..p..  A $00 B $00 C $00 D $00 E $00 H $05 L $09 SP 05fd
0000 00a4 INX    H       	..p..  A $00 B $00 C $00 D $00 E $00 H $05 L $0a SP 05fd
0000 00a5 MOV    D,M     	..p..  A $00 B $00 C $00 D $00 E $00 H $05 L $0a SP 05fd
0000 00a6 INX    H       	..p..  A $00 B $00 C $00 D $00 E $00 H $05 L $0b SP 05fd
0000 00a7 MOV    E,M     	..p..  A $00 B $00 C $00 D $00 E $00 H $05 L $0b SP 05fd
0000 00a8 PUSH   D       	..p..  A $00 B $00 C $00 D $00 E $00 H $05 L $0b SP 05fb
0000 00a9 INX    H       	..p..  A $00 B $00 C $00 D $00 E $00 H $05 L $0c SP 05fb
0000 00aa INX    H       	..p..  A $00 B $00 C $00 D $00 E $00 H $05 L $0d SP 05fb
0000 00ab INX    H       	..p..  A $00 B $00 C $00 D $00 E $00 H $05 L $0e SP 05fb
0000 00ac MOV    E,M     	..p..  A $00 B $00 C $00 D $00 E $00 H $05 L $0e SP 05fb
0000 00ad INX    H       	..p..  A $00 B $00 C $00 D $00 E $00 H $05 L $0f SP 05fb
0000 00ae MOV    D,M     	..p..  A $00 B $00 C $00 D $00 E $00 H $05 L $0f SP 05fb
0000 00af PUSH   D       	..p..  A $00 B $00 C $00 D $00 E $00 H $05 L $0f SP 05f9
0000 00b0 INX    H       	..p..  A $00 B $00 C $00 D $00 E $00 H $05 L $10 SP 05f9
0000 00b1 MOV    E,M     	..p..  A $00 B $00 C $00 D $00 E $00 H $05 L $10 SP 05f9
0000 00b2 INX    H       	..p..  A $00 B $00 C $00 D $00 E $00 H $05 L $11 SP 05f9
0000 00b3 MOV    D,M     	..p..  A $00 B $00 C $00 D $04 E $00 H $05 L $11 SP 05f9
0000 00b4 PUSH   D       	..p..  A $00 B $00 C $00 D $04 E $00 H $05 L $11 SP 05f7
0000 00b5 INX    H       	..p..  A $00 B $00 C $00 D $04 E $00 H $05 L $12 SP 05f7
0000 00b6 MOV    L,M     	..p..  A $00 B $00 C $00 D $04 E $00 H $05 L $00 SP 05f7
0000 00b7 MOV    H,A     	..p..  A $00 B $00 C $00 D $04 E $00 H $00 L $00 SP 05f7
0000 00b8 PUSH   H       	..p..  A $00 B $00 C $00 D $04 E $00 H $00 L $00 SP 05f5
0000 00b9 POP    PSW     	.....  A $00 B $00 C $00 D $04 E $00 H $00 L $00 SP 05f7
0000 00ba POP    D       	.....  A $00 B $00 C $00 D $04 E $00 H $00 L $00 SP 05f9
0000 00bb POP    H       	.....  A $00 B $00 C $00 D $04 E $00 H $00 L $00 SP 05fb
0000 00bc EI             	.....  A $00 B $00 C $00 D $04 E $00 H $00 L $00 SP 05fb
0000 00bd PCHL           	.....  A $00 B $00 C $00 D $00 E $00 H $00 L $00 SP 05ff
0400 0000 JMP    $0021   	.....  A $00 B $00 C $00 D $00 E $00 H $00 L $00 SP 05ff
0400 0021 MVI    A,#$07  	.....  A $07 B $00 C $00 D $00 E $00 H $00 L $00 SP 05ff
0400 0023 CALL   $0007   	.....  A $07 B $00 C $00 D $00 E $00 H $00 L $00 SP 05fd

Caller pc: 38
0400 0026 MOV    D,B     	.....  A $07 B $01 C $00 D $01 E $00 H $00 L $00 SP 05ff
0400 0027 MOV    E,B     	.....  A $07 B $01 C $00 D $01 E $01 H $00 L $00 SP 05ff
0400 0028 INR    D       	.....  A $07 B $01 C $00 D $02 E $01 H $00 L $00 SP 05ff
0400 0029 MVI    A,#$00  	.....  A $00 B $01 C $00 D $02 E $01 H $00 L $00 SP 05ff
0400 002b SUB    B       	.spc.  A $ff B $01 C $00 D $02 E $01 H $00 L $00 SP 05ff
0400 002c JP     $0052   	.spc.  A $ff B $01 C $00 D $02 E $01 H $00 L $00 SP 05ff
0400 002f MVI    C,#$01  	.spc.  A $ff B $01 C $01 D $02 E $01 H $00 L $00 SP 05ff
Interrupt: 86
	.spc.  A $ff B $01 C $01 D $02 E $01 H $00 L $00 SP 05fd
0000 0028 DI             	.spc.  A $ff B $01 C $01 D $02 E $01 H $00 L $00 SP 05fd
0000 0029 LXI    H,#$010a	.spc.  A $ff B $01 C $01 D $02 E $01 H $01 L $0a SP 05fd
0000 002c MOV    B,M     	.spc.  A $ff B $00 C $01 D $02 E $01 H $01 L $0a SP 05fd
0000 002d LDA    $010c   	.spc.  A $04 B $00 C $01 D $02 E $01 H $01 L $0a SP 05fd
0000 0030 ADD    B       	.....  A $04 B $00 C $01 D $02 E $01 H $01 L $0a SP 05fd
0000 0031 MOV    B,A     	.....  A $04 B $04 C $01 D $02 E $01 H $01 L $0a SP 05fd
0000 0032 MVI    C,#$ff  	.....  A $04 B $04 C $ff D $02 E $01 H $01 L $0a SP 05fd
0000 0034 INX    B       	.....  A $04 B $05 C $00 D $02 E $01 H $01 L $0a SP 05fd
0000 0035 MOV    H,B     	.....  A $04 B $05 C $00 D $02 E $01 H $05 L $0a SP 05fd
0000 0036 MOV    L,C     	.....  A $04 B $05 C $00 D $02 E $01 H $05 L $00 SP 05fd
0000 0037 MOV    B,M     	.....  A $04 B $02 C $00 D $02 E $01 H $05 L $00 SP 05fd
0000 0038 INX    H       	.....  A $04 B $02 C $00 D $02 E $01 H $05 L $01 SP 05fd
0000 0039 MOV    C,M     	.....  A $04 B $02 C $00 D $02 E $01 H $05 L $01 SP 05fd
0000 003a PUSH   B       	.....  A $04 B $02 C $00 D $02 E $01 H $05 L $01 SP 05fb
0000 003b INX    H       	.....  A $04 B $02 C $00 D $02 E $01 H $05 L $02 SP 05fb
0000 003c INX    H       	.....  A $04 B $02 C $00 D $02 E $01 H $05 L $03 SP 05fb
0000 003d INX    H       	.....  A $04 B $02 C $00 D $02 E $01 H $05 L $04 SP 05fb
0000 003e INX    H       	.....  A $04 B $02 C $00 D $02 E $01 H $05 L $05 SP 05fb
0000 003f LDA    $0100   	.....  A $ff B $02 C $00 D $02 E $01 H $05 L $05 SP 05fb
0000 0042 MOV    M,A     	.....  A $ff B $02 C $00 D $02 E $01 H $05 L $05 SP 05fb
0000 0043 INX    H       	.....  A $ff B $02 C $00 D $02 E $01 H $05 L $06 SP 05fb
0000 0044 LDA    $0101   	.....  A $01 B $02 C $00 D $02 E $01 H $05 L $06 SP 05fb
0000 0047 MOV    M,A     	.....  A $01 B $02 C $00 D $02 E $01 H $05 L $06 SP 05fb
0000 0048 INX    H       	.....  A $01 B $02 C $00 D $02 E $01 H $05 L $07 SP 05fb
0000 0049 LDA    $0102   	.....  A $01 B $02 C $00 D $02 E $01 H $05 L $07 SP 05fb
0000 004c MOV    M,A     	.....  A $01 B $02 C $00 D $02 E $01 H $05 L $07 SP 05fb
0000 004d INX    H       	.....  A $01 B $02 C $00 D $02 E $01 H $05 L $08 SP 05fb
0000 004e LDA    $0103   	.....  A $02 B $02 C $00 D $02 E $01 H $05 L $08 SP 05fb
0000 0051 MOV    M,A     	.....  A $02 B $02 C $00 D $02 E $01 H $05 L $08 SP 05fb
0000 0052 INX    H       	.....  A $02 B $02 C $00 D $02 E $01 H $05 L $09 SP 05fb
0000 0053 LDA    $0104   	.....  A $01 B $02 C $00 D $02 E $01 H $05 L $09 SP 05fb
0000 0056 MOV    M,A     	.....  A $01 B $02 C $00 D $02 E $01 H $05 L $09 SP 05fb
0000 0057 INX    H       	.....  A $01 B $02 C $00 D $02 E $01 H $05 L $0a SP 05fb
0000 0058 LDA    $0105   	.....  A $00 B $02 C $00 D $02 E $01 H $05 L $0a SP 05fb
0000 005b MOV    M,A     	.....  A $00 B $02 C $00 D $02 E $01 H $05 L $0a SP 05fb
0000 005c INX    H       	.....  A $00 B $02 C $00 D $02 E $01 H $05 L $0b SP 05fb
0000 005d LDA    $0106   	.....  A $00 B $02 C $00 D $02 E $01 H $05 L $0b SP 05fb
0000 0060 MOV    M,A     	.....  A $00 B $02 C $00 D $02 E $01 H $05 L $0b SP 05fb
0000 0061 INX    H       	.....  A $00 B $02 C $00 D $02 E $01 H $05 L $0c SP 05fb
0000 0062 LDA    $0107   	.....  A $ff B $02 C $00 D $02 E $01 H $05 L $0c SP 05fb
0000 0065 MOV    M,A     	.....  A $ff B $02 C $00 D $02 E $01 H $05 L $0c SP 05fb
0000 0066 INX    H       	.....  A $ff B $02 C $00 D $02 E $01 H $05 L $0d SP 05fb
0000 0067 LDA    $0108   	.....  A $05 B $02 C $00 D $02 E $01 H $05 L $0d SP 05fb
0000 006a MOV    M,A     	.....  A $05 B $02 C $00 D $02 E $01 H $05 L $0d SP 05fb
0000 006b INX    H       	.....  A $05 B $02 C $00 D $02 E $01 H $05 L $0e SP 05fb
0000 006c LDA    $0109   	.....  A $31 B $02 C $00 D $02 E $01 H $05 L $0e SP 05fb
0000 006f MOV    M,A     	.....  A $31 B $02 C $00 D $02 E $01 H $05 L $0e SP 05fb
0000 0070 INX    H       	.....  A $31 B $02 C $00 D $02 E $01 H $05 L $0f SP 05fb
0000 0071 LDA    $010a   	.....  A $00 B $02 C $00 D $02 E $01 H $05 L $0f SP 05fb
0000 0074 MOV    M,A     	.....  A $00 B $02 C $00 D $02 E $01 H $05 L $0f SP 05fb
0000 0075 INX    H       	.....  A $00 B $02 C $00 D $02 E $01 H $05 L $10 SP 05fb
0000 0076 LDA    $010b   	.....  A $00 B $02 C $00 D $02 E $01 H $05 L $10 SP 05fb
0000 0079 MOV    M,A     	.....  A $00 B $02 C $00 D $02 E $01 H $05 L $10 SP 05fb
0000 007a INX    H       	.....  A $00 B $02 C $00 D $02 E $01 H $05 L $11 SP 05fb
0000 007b LDA    $010c   	.....  A $04 B $02 C $00 D $02 E $01 H $05 L $11 SP 05fb
0000 007e MOV    M,A     	.....  A $04 B $02 C $00 D $02 E $01 H $05 L $11 SP 05fb
0000 007f INX    H       	.....  A $04 B $02 C $00 D $02 E $01 H $05 L $12 SP 05fb
0000 0080 LDA    $010d   	.....  A $85 B $02 C $00 D $02 E $01 H $05 L $12 SP 05fb
0000 0083 MOV    M,A     	.....  A $85 B $02 C $00 D $02 E $01 H $05 L $12 SP 05fb
0000 0084 POP    H       	.....  A $85 B $02 C $00 D $02 E $01 H $02 L $00 SP 05fd
0000 0085 INR    H       	..p..  A $85 B $02 C $00 D $02 E $01 H $03 L $00 SP 05fd
0000 0086 INX    H       	..p..  A $85 B $02 C $00 D $02 E $01 H $03 L $01 SP 05fd
0000 0087 INX    H       	..p..  A $85 B $02 C $00 D $02 E $01 H $03 L $02 SP 05fd
0000 0088 INX    H       	..p..  A $85 B $02 C $00 D $02 E $01 H $03 L $03 SP 05fd
0000 0089 INX    H       	..p..  A $85 B $02 C $00 D $02 E $01 H $03 L $04 SP 05fd
0000 008a INX    H       	..p..  A $85 B $02 C $00 D $02 E $01 H $03 L $05 SP 05fd
0000 008b MOV    A,M     	..p..  A $03 B $02 C $00 D $02 E $01 H $03 L $05 SP 05fd
0000 008c INX    H       	..p..  A $03 B $02 C $00 D $02 E $01 H $03 L $06 SP 05fd
0000 008d MOV    B,M     	..p..  A $03 B $02 C $00 D $02 E $01 H $03 L $06 SP 05fd
0000 008e INX    H       	..p..  A $03 B $02 C $00 D $02 E $01 H $03 L $07 SP 05fd
0000 008f MOV    C,M     	..p..  A $03 B $02 C $1b D $02 E $01 H $03 L $07 SP 05fd
0000 0090 INX    H       	..p..  A $03 B $02 C $1b D $02 E $01 H $03 L $08 SP 05fd
0000 0091 INX    H       	..p..  A $03 B $02 C $1b D $02 E $01 H $03 L $09 SP 05fd
0000 0092 INX    H       	..p..  A $03 B $02 C $1b D $02 E $01 H $03 L $0a SP 05fd
0000 0093 INX    H       	..p..  A $03 B $02 C $1b D $02 E $01 H $03 L $0b SP 05fd
0000 0094 INX    H       	..p..  A $03 B $02 C $1b D $02 E $01 H $03 L $0c SP 05fd
0000 0095 MOV    E,M     	..p..  A $03 B $02 C $1b D $02 E $fb H $03 L $0c SP 05fd
0000 0096 INX    H       	..p..  A $03 B $02 C $1b D $02 E $fb H $03 L $0d SP 05fd
0000 0097 MOV    D,M     	..p..  A $03 B $02 C $1b D $03 E $fb H $03 L $0d SP 05fd
0000 0098 XCHG           	..p..  A $03 B $02 C $1b D $03 E $0d H $03 L $fb SP 05fd
0000 0099 SPHL           	..p..  A $03 B $02 C $1b D $03 E $0d H $03 L $fb SP 03fb
0000 009a XCHG           	..p..  A $03 B $02 C $1b D $03 E $fb H $03 L $0d SP 03fb
0000 009b DCX    H       	..p..  A $03 B $02 C $1b D $03 E $fb H $03 L $0c SP 03fb
0000 009c DCX    H       	..p..  A $03 B $02 C $1b D $03 E $fb H $03 L $0b SP 03fb
0000 009d DCX    H       	..p..  A $03 B $02 C $1b D $03 E $fb H $03 L $0a SP 03fb
0000 009e DCX    H       	..p..  A $03 B $02 C $1b D $03 E $fb H $03 L $09 SP 03fb
0000 009f MOV    E,M     	..p..  A $03 B $02 C $1b D $03 E $00 H $03 L $09 SP 03fb
0000 00a0 DCX    H       	..p..  A $03 B $02 C $1b D $03 E $00 H $03 L $08 SP 03fb
0000 00a1 MOV    D,M     	..p..  A $03 B $02 C $1b D $02 E $00 H $03 L $08 SP 03fb
0000 00a2 PUSH   D       	..p..  A $03 B $02 C $1b D $02 E $00 H $03 L $08 SP 03f9
0000 00a3 INX    H       	..p..  A $03 B $02 C $1b D $02 E $00 H $03 L $09 SP 03f9
0000 00a4 INX    H       	..p..  A $03 B $02 C $1b D $02 E $00 H $03 L $0a SP 03f9
0000 00a5 MOV    D,M     	..p..  A $03 B $02 C $1b D $03 E $00 H $03 L $0a SP 03f9
0000 00a6 INX    H       	..p..  A $03 B $02 C $1b D $03 E $00 H $03 L $0b SP 03f9
0000 00a7 MOV    E,M     	..p..  A $03 B $02 C $1b D $03 E $00 H $03 L $0b SP 03f9
0000 00a8 PUSH   D       	..p..  A $03 B $02 C $1b D $03 E $00 H $03 L $0b SP 03f7
0000 00a9 INX    H       	..p..  A $03 B $02 C $1b D $03 E $00 H $03 L $0c SP 03f7
0000 00aa INX    H       	..p..  A $03 B $02 C $1b D $03 E $00 H $03 L $0d SP 03f7
0000 00ab INX    H       	..p..  A $03 B $02 C $1b D $03 E $00 H $03 L $0e SP 03f7
0000 00ac MOV    E,M     	..p..  A $03 B $02 C $1b D $03 E $30 H $03 L $0e SP 03f7
0000 00ad INX    H       	..p..  A $03 B $02 C $1b D $03 E $30 H $03 L $0f SP 03f7
0000 00ae MOV    D,M     	..p..  A $03 B $02 C $1b D $02 E $30 H $03 L $0f SP 03f7
0000 00af PUSH   D       	..p..  A $03 B $02 C $1b D $02 E $30 H $03 L $0f SP 03f5
0000 00b0 INX    H       	..p..  A $03 B $02 C $1b D $02 E $30 H $03 L $10 SP 03f5
0000 00b1 MOV    E,M     	..p..  A $03 B $02 C $1b D $02 E $00 H $03 L $10 SP 03f5
0000 00b2 INX    H       	..p..  A $03 B $02 C $1b D $02 E $00 H $03 L $11 SP 03f5
0000 00b3 MOV    D,M     	..p..  A $03 B $02 C $1b D $00 E $00 H $03 L $11 SP 03f5
0000 00b4 PUSH   D       	..p..  A $03 B $02 C $1b D $00 E $00 H $03 L $11 SP 03f3
0000 00b5 INX    H       	..p..  A $03 B $02 C $1b D $00 E $00 H $03 L $12 SP 03f3
0000 00b6 MOV    L,M     	..p..  A $03 B $02 C $1b D $00 E $00 H $03 L $00 SP 03f3
0000 00b7 MOV    H,A     	..p..  A $03 B $02 C $1b D $00 E $00 H $03 L $00 SP 03f3
0000 00b8 PUSH   H       	..p..  A $03 B $02 C $1b D $00 E $00 H $03 L $00 SP 03f1
0000 00b9 POP    PSW     	.....  A $03 B $02 C $1b D $00 E $00 H $03 L $00 SP 03f3
0000 00ba POP    D       	.....  A $03 B $02 C $1b D $00 E $00 H $03 L $00 SP 03f5
0000 00bb POP    H       	.....  A $03 B $02 C $1b D $00 E $00 H $02 L $30 SP 03f7
0000 00bc EI             	.....  A $03 B $02 C $1b D $00 E $00 H $02 L $30 SP 03f7
0000 00bd PCHL           	.....  A $03 B $02 C $1b D $02 E $00 H $03 L $00 SP 03fb
0000 0230 INR    D       	..p..  A $03 B $02 C $1b D $03 E $00 H $03 L $00 SP 03fb
0000 0231 LDAX   D       	..p..  A $04 B $02 C $1b D $03 E $00 H $03 L $00 SP 03fb
0000 0232 MOV    E,A     	..p..  A $04 B $02 C $1b D $03 E $04 H $03 L $00 SP 03fb
0000 0233 DCR    D       	.....  A $04 B $02 C $1b D $02 E $04 H $03 L $00 SP 03fb
0000 0234 CMP    D       	.....  A $04 B $02 C $1b D $02 E $04 H $03 L $00 SP 03fb
0000 0235 JNZ    $0230   	.....  A $04 B $02 C $1b D $02 E $04 H $03 L $00 SP 03fb
0000 0230 INR    D       	..p..  A $04 B $02 C $1b D $03 E $04 H $03 L $00 SP 03fb
0000 0231 LDAX   D       	..p..  A $00 B $02 C $1b D $03 E $04 H $03 L $00 SP 03fb
0000 0232 MOV    E,A     	..p..  A $00 B $02 C $1b D $03 E $00 H $03 L $00 SP 03fb
0000 0233 DCR    D       	.....  A $00 B $02 C $1b D $02 E $00 H $03 L $00 SP 03fb
0000 0234 CMP    D       	.s.c.  A $00 B $02 C $1b D $02 E $00 H $03 L $00 SP 03fb
0000 0235 JNZ    $0230   	.s.c.  A $00 B $02 C $1b D $02 E $00 H $03 L $00 SP 03fb
Interrupt: 81
	.s.c.  A $00 B $02 C $1b D $02 E $00 H $03 L $00 SP 03f9
0000 0028 DI             	.s.c.  A $00 B $02 C $1b D $02 E $00 H $03 L $00 SP 03f9
0000 0029 LXI    H,#$010a	.s.c.  A $00 B $02 C $1b D $02 E $00 H $01 L $0a SP 03f9
0000 002c MOV    B,M     	.s.c.  A $00 B $02 C $1b D $02 E $00 H $01 L $0a SP 03f9
0000 002d LDA    $010c   	.s.c.  A $00 B $02 C $1b D $02 E $00 H $01 L $0a SP 03f9
0000 0030 ADD    B       	.....  A $02 B $02 C $1b D $02 E $00 H $01 L $0a SP 03f9
0000 0031 MOV    B,A     	.....  A $02 B $02 C $1b D $02 E $00 H $01 L $0a SP 03f9
0000 0032 MVI    C,#$ff  	.....  A $02 B $02 C $ff D $02 E $00 H $01 L $0a SP 03f9
0000 0034 INX    B       	.....  A $02 B $03 C $00 D $02 E $00 H $01 L $0a SP 03f9
0000 0035 MOV    H,B     	.....  A $02 B $03 C $00 D $02 E $00 H $03 L $0a SP 03f9
0000 0036 MOV    L,C     	.....  A $02 B $03 C $00 D $02 E $00 H $03 L $00 SP 03f9
0000 0037 MOV    B,M     	.....  A $02 B $04 C $00 D $02 E $00 H $03 L $00 SP 03f9
0000 0038 INX    H       	.....  A $02 B $04 C $00 D $02 E $00 H $03 L $01 SP 03f9
0000 0039 MOV    C,M     	.....  A $02 B $04 C $00 D $02 E $00 H $03 L $01 SP 03f9
0000 003a PUSH   B       	.....  A $02 B $04 C $00 D $02 E $00 H $03 L $01 SP 03f7
0000 003b INX    H       	.....  A $02 B $04 C $00 D $02 E $00 H $03 L $02 SP 03f7
0000 003c INX    H       	.....  A $02 B $04 C $00 D $02 E $00 H $03 L $03 SP 03f7
0000 003d INX    H       	.....  A $02 B $04 C $00 D $02 E $00 H $03 L $04 SP 03f7
0000 003e INX    H       	.....  A $02 B $04 C $00 D $02 E $00 H $03 L $05 SP 03f7
0000 003f LDA    $0100   	.....  A $00 B $04 C $00 D $02 E $00 H $03 L $05 SP 03f7
0000 0042 MOV    M,A     	.....  A $00 B $04 C $00 D $02 E $00 H $03 L $05 SP 03f7
0000 0043 INX    H       	.....  A $00 B $04 C $00 D $02 E $00 H $03 L $06 SP 03f7
0000 0044 LDA    $0101   	.....  A $02 B $04 C $00 D $02 E $00 H $03 L $06 SP 03f7
0000 0047 MOV    M,A     	.....  A $02 B $04 C $00 D $02 E $00 H $03 L $06 SP 03f7
0000 0048 INX    H       	.....  A $02 B $04 C $00 D $02 E $00 H $03 L $07 SP 03f7
0000 0049 LDA    $0102   	.....  A $1b B $04 C $00 D $02 E $00 H $03 L $07 SP 03f7
0000 004c MOV    M,A     	.....  A $1b B $04 C $00 D $02 E $00 H $03 L $07 SP 03f7
0000 004d INX    H       	.....  A $1b B $04 C $00 D $02 E $00 H $03 L $08 SP 03f7
0000 004e LDA    $0103   	.....  A $02 B $04 C $00 D $02 E $00 H $03 L $08 SP 03f7
0000 0051 MOV    M,A     	.....  A $02 B $04 C $00 D $02 E $00 H $03 L $08 SP 03f7
0000 0052 INX    H       	.....  A $02 B $04 C $00 D $02 E $00 H $03 L $09 SP 03f7
0000 0053 LDA    $0104   	.....  A $00 B $04 C $00 D $02 E $00 H $03 L $09 SP 03f7
0000 0056 MOV    M,A     	.....  A $00 B $04 C $00 D $02 E $00 H $03 L $09 SP 03f7
0000 0057 INX    H       	.....  A $00 B $04 C $00 D $02 E $00 H $03 L $0a SP 03f7
0000 0058 LDA    $0105   	.....  A $03 B $04 C $00 D $02 E $00 H $03 L $0a SP 03f7
0000 005b MOV    M,A     	.....  A $03 B $04 C $00 D $02 E $00 H $03 L $0a SP 03f7
0000 005c INX    H       	.....  A $03 B $04 C $00 D $02 E $00 H $03 L $0b SP 03f7
0000 005d LDA    $0106   	.....  A $00 B $04 C $00 D $02 E $00 H $03 L $0b SP 03f7
0000 0060 MOV    M,A     	.....  A $00 B $04 C $00 D $02 E $00 H $03 L $0b SP 03f7
0000 0061 INX    H       	.....  A $00 B $04 C $00 D $02 E $00 H $03 L $0c SP 03f7
0000 0062 LDA    $0107   	.....  A $fb B $04 C $00 D $02 E $00 H $03 L $0c SP 03f7
0000 0065 MOV    M,A     	.....  A $fb B $04 C $00 D $02 E $00 H $03 L $0c SP 03f7
0000 0066 INX    H       	.....  A $fb B $04 C $00 D $02 E $00 H $03 L $0d SP 03f7
0000 0067 LDA    $0108   	.....  A $03 B $04 C $00 D $02 E $00 H $03 L $0d SP 03f7
0000 006a MOV    M,A     	.....  A $03 B $04 C $00 D $02 E $00 H $03 L $0d SP 03f7
0000 006b INX    H       	.....  A $03 B $04 C $00 D $02 E $00 H $03 L $0e SP 03f7
0000 006c LDA    $0109   	.....  A $30 B $04 C $00 D $02 E $00 H $03 L $0e SP 03f7
0000 006f MOV    M,A     	.....  A $30 B $04 C $00 D $02 E $00 H $03 L $0e SP 03f7
0000 0070 INX    H       	.....  A $30 B $04 C $00 D $02 E $00 H $03 L $0f SP 03f7
0000 0071 LDA    $010a   	.....  A $02 B $04 C $00 D $02 E $00 H $03 L $0f SP 03f7
0000 0074 MOV    M,A     	.....  A $02 B $04 C $00 D $02 E $00 H $03 L $0f SP 03f7
0000 0075 INX    H       	.....  A $02 B $04 C $00 D $02 E $00 H $03 L $10 SP 03f7
0000 0076 LDA    $010b   	.....  A $00 B $04 C $00 D $02 E $00 H $03 L $10 SP 03f7
0000 0079 MOV    M,A     	.....  A $00 B $04 C $00 D $02 E $00 H $03 L $10 SP 03f7
0000 007a INX    H       	.....  A $00 B $04 C $00 D $02 E $00 H $03 L $11 SP 03f7
0000 007b LDA    $010c   	.....  A $00 B $04 C $00 D $02 E $00 H $03 L $11 SP 03f7
0000 007e MOV    M,A     	.....  A $00 B $04 C $00 D $02 E $00 H $03 L $11 SP 03f7
0000 007f INX    H       	.....  A $00 B $04 C $00 D $02 E $00 H $03 L $12 SP 03f7
0000 0080 LDA    $010d   	.....  A $81 B $04 C $00 D $02 E $00 H $03 L $12 SP 03f7
0000 0083 MOV    M,A     	.....  A $81 B $04 C $00 D $02 E $00 H $03 L $12 SP 03f7
0000 0084 POP    H       	.....  A $81 B $04 C $00 D $02 E $00 H $04 L $00 SP 03f9
0000 0085 INR    H       	..p..  A $81 B $04 C $00 D $02 E $00 H $05 L $00 SP 03f9
0000 0086 INX    H       	..p..  A $81 B $04 C $00 D $02 E $00 H $05 L $01 SP 03f9
0000 0087 INX    H       	..p..  A $81 B $04 C $00 D $02 E $00 H $05 L $02 SP 03f9
0000 0088 INX    H       	..p..  A $81 B $04 C $00 D $02 E $00 H $05 L $03 SP 03f9
0000 0089 INX    H       	..p..  A $81 B $04 C $00 D $02 E $00 H $05 L $04 SP 03f9
0000 008a INX    H       	..p..  A $81 B $04 C $00 D $02 E $00 H $05 L $05 SP 03f9
0000 008b MOV    A,M     	..p..  A $ff B $04 C $00 D $02 E $00 H $05 L $05 SP 03f9
0000 008c INX    H       	..p..  A $ff B $04 C $00 D $02 E $00 H $05 L $06 SP 03f9
0000 008d MOV    B,M     	..p..  A $ff B $01 C $00 D $02 E $00 H $05 L $06 SP 03f9
0000 008e INX    H       	..p..  A $ff B $01 C $00 D $02 E $00 H $05 L $07 SP 03f9
0000 008f MOV    C,M     	..p..  A $ff B $01 C $01 D $02 E $00 H $05 L $07 SP 03f9
0000 0090 INX    H       	..p..  A $ff B $01 C $01 D $02 E $00 H $05 L $08 SP 03f9
0000 0091 INX    H       	..p..  A $ff B $01 C $01 D $02 E $00 H $05 L $09 SP 03f9
0000 0092 INX    H       	..p..  A $ff B $01 C $01 D $02 E $00 H $05 L $0a SP 03f9
0000 0093 INX    H       	..p..  A $ff B $01 C $01 D $02 E $00 H $05 L $0b SP 03f9
0000 0094 INX    H       	..p..  A $ff B $01 C $01 D $02 E $00 H $05 L $0c SP 03f9
0000 0095 MOV    E,M     	..p..  A $ff B $01 C $01 D $02 E $ff H $05 L $0c SP 03f9
0000 0096 INX    H       	..p..  A $ff B $01 C $01 D $02 E $ff H $05 L $0d SP 03f9
0000 0097 MOV    D,M     	..p..  A $ff B $01 C $01 D $05 E $ff H $05 L $0d SP 03f9
0000 0098 XCHG           	..p..  A $ff B $01 C $01 D $05 E $0d H $05 L $ff SP 03f9
0000 0099 SPHL           	..p..  A $ff B $01 C $01 D $05 E $0d H $05 L $ff SP 05ff
0000 009a XCHG           	..p..  A $ff B $01 C $01 D $05 E $ff H $05 L $0d SP 05ff
0000 009b DCX    H       	..p..  A $ff B $01 C $01 D $05 E $ff H $05 L $0c SP 05ff
0000 009c DCX    H       	..p..  A $ff B $01 C $01 D $05 E $ff H $05 L $0b SP 05ff
0000 009d DCX    H       	..p..  A $ff B $01 C $01 D $05 E $ff H $05 L $0a SP 05ff
0000 009e DCX    H       	..p..  A $ff B $01 C $01 D $05 E $ff H $05 L $09 SP 05ff
0000 009f MOV    E,M     	..p..  A $ff B $01 C $01 D $05 E $01 H $05 L $09 SP 05ff
0000 00a0 DCX    H       	..p..  A $ff B $01 C $01 D $05 E $01 H $05 L $08 SP 05ff
0000 00a1 MOV    D,M     	..p..  A $ff B $01 C $01 D $02 E $01 H $05 L $08 SP 05ff
0000 00a2 PUSH   D       	..p..  A $ff B $01 C $01 D $02 E $01 H $05 L $08 SP 05fd
0000 00a3 INX    H       	..p..  A $ff B $01 C $01 D $02 E $01 H $05 L $09 SP 05fd
0000 00a4 INX    H       	..p..  A $ff B $01 C $01 D $02 E $01 H $05 L $0a SP 05fd
0000 00a5 MOV    D,M     	..p..  A $ff B $01 C $01 D $00 E $01 H $05 L $0a SP 05fd
0000 00a6 INX    H       	..p..  A $ff B $01 C $01 D $00 E $01 H $05 L $0b SP 05fd
0000 00a7 MOV    E,M     	..p..  A $ff B $01 C $01 D $00 E $00 H $05 L $0b SP 05fd
0000 00a8 PUSH   D       	..p..  A $ff B $01 C $01 D $00 E $00 H $05 L $0b SP 05fb
0000 00a9 INX    H       	..p..  A $ff B $01 C $01 D $00 E $00 H $05 L $0c SP 05fb
0000 00aa INX    H       	..p..  A $ff B $01 C $01 D $00 E $00 H $05 L $0d SP 05fb
0000 00ab INX    H       	..p..  A $ff B $01 C $01 D $00 E $00 H $05 L $0e SP 05fb
0000 00ac MOV    E,M     	..p..  A $ff B $01 C $01 D $00 E $31 H $05 L $0e SP 05fb
0000 00ad INX    H       	..p..  A $ff B $01 C $01 D $00 E $31 H $05 L $0f SP 05fb
0000 00ae MOV    D,M     	..p..  A $ff B $01 C $01 D $00 E $31 H $05 L $0f SP 05fb
0000 00af PUSH   D       	..p..  A $ff B $01 C $01 D $00 E $31 H $05 L $0f SP 05f9
0000 00b0 INX    H       	..p..  A $ff B $01 C $01 D $00 E $31 H $05 L $10 SP 05f9
0000 00b1 MOV    E,M     	..p..  A $ff B $01 C $01 D $00 E $00 H $05 L $10 SP 05f9
0000 00b2 INX    H       	..p..  A $ff B $01 C $01 D $00 E $00 H $05 L $11 SP 05f9
0000 00b3 MOV    D,M     	..p..  A $ff B $01 C $01 D $04 E $00 H $05 L $11 SP 05f9
0000 00b4 PUSH   D       	..p..  A $ff B $01 C $01 D $04 E $00 H $05 L $11 SP 05f7
0000 00b5 INX    H       	..p..  A $ff B $01 C $01 D $04 E $00 H $05 L $12 SP 05f7
0000 00b6 MOV    L,M     	..p..  A $ff B $01 C $01 D $04 E $00 H $05 L $85 SP 05f7
0000 00b7 MOV    H,A     	..p..  A $ff B $01 C $01 D $04 E $00 H $ff L $85 SP 05f7
0000 00b8 PUSH   H       	..p..  A $ff B $01 C $01 D $04 E $00 H $ff L $85 SP 05f5
0000 00b9 POP    PSW     	.spc.  A $ff B $01 C $01 D $04 E $00 H $ff L $85 SP 05f7
0000 00ba POP    D       	.spc.  A $ff B $01 C $01 D $04 E $00 H $ff L $85 SP 05f9
0000 00bb POP    H       	.spc.  A $ff B $01 C $01 D $04 E $00 H $00 L $31 SP 05fb
0000 00bc EI             	.spc.  A $ff B $01 C $01 D $04 E $00 H $00 L $31 SP 05fb
0000 00bd PCHL           	.spc.  A $ff B $01 C $01 D $02 E $01 H $00 L $00 SP 05ff
0400 0031 MOV    B,C     	.spc.  A $ff B $01 C $01 D $02 E $01 H $00 L $00 SP 05ff
0400 0032 MVI    A,#$04  	.spc.  A $04 B $01 C $01 D $02 E $01 H $00 L $00 SP 05ff
0400 0034 CALL   $0007   	.spc.  A $04 B $01 C $01 D $02 E $01 H $00 L $00 SP 05fd

Caller pc: 55
0400 0037 PUSH   B       	.spc.  A $04 B $01 C $01 D $02 E $01 H $00 L $00 SP 05fd
0400 0038 LXI    B,#$0007	.spc.  A $04 B $00 C $07 D $02 E $01 H $00 L $00 SP 05fd
0400 003b MVI    A,#$01  	.spc.  A $01 B $00 C $07 D $02 E $01 H $00 L $00 SP 05fd
0400 003d CALL   $0007   	.spc.  A $01 B $00 C $07 D $02 E $01 H $00 L $00 SP 05fb
Interrupt: 83

Caller pc: 64
	.spc.  A $01 B $00 C $07 D $02 E $01 H $00 L $00 SP 05fb
0000 0028 DI             	.spc.  A $01 B $00 C $07 D $02 E $01 H $00 L $00 SP 05fb
0000 0029 LXI    H,#$010a	.spc.  A $01 B $00 C $07 D $02 E $01 H $01 L $0a SP 05fb
0000 002c MOV    B,M     	.spc.  A $01 B $00 C $07 D $02 E $01 H $01 L $0a SP 05fb
0000 002d LDA    $010c   	.spc.  A $04 B $00 C $07 D $02 E $01 H $01 L $0a SP 05fb
0000 0030 ADD    B       	.....  A $04 B $00 C $07 D $02 E $01 H $01 L $0a SP 05fb
0000 0031 MOV    B,A     	.....  A $04 B $04 C $07 D $02 E $01 H $01 L $0a SP 05fb
0000 0032 MVI    C,#$ff  	.....  A $04 B $04 C $ff D $02 E $01 H $01 L $0a SP 05fb
0000 0034 INX    B       	.....  A $04 B $05 C $00 D $02 E $01 H $01 L $0a SP 05fb
0000 0035 MOV    H,B     	.....  A $04 B $05 C $00 D $02 E $01 H $05 L $0a SP 05fb
0000 0036 MOV    L,C     	.....  A $04 B $05 C $00 D $02 E $01 H $05 L $00 SP 05fb
0000 0037 MOV    B,M     	.....  A $04 B $02 C $00 D $02 E $01 H $05 L $00 SP 05fb
0000 0038 INX    H       	.....  A $04 B $02 C $00 D $02 E $01 H $05 L $01 SP 05fb
0000 0039 MOV    C,M     	.....  A $04 B $02 C $00 D $02 E $01 H $05 L $01 SP 05fb
0000 003a PUSH   B       	.....  A $04 B $02 C $00 D $02 E $01 H $05 L $01 SP 05f9
0000 003b INX    H       	.....  A $04 B $02 C $00 D $02 E $01 H $05 L $02 SP 05f9
0000 003c INX    H       	.....  A $04 B $02 C $00 D $02 E $01 H $05 L $03 SP 05f9
0000 003d INX    H       	.....  A $04 B $02 C $00 D $02 E $01 H $05 L $04 SP 05f9
0000 003e INX    H       	.....  A $04 B $02 C $00 D $02 E $01 H $05 L $05 SP 05f9
0000 003f LDA    $0100   	.....  A $01 B $02 C $00 D $02 E $01 H $05 L $05 SP 05f9
0000 0042 MOV    M,A     	.....  A $01 B $02 C $00 D $02 E $01 H $05 L $05 SP 05f9
0000 0043 INX    H       	.....  A $01 B $02 C $00 D $02 E $01 H $05 L $06 SP 05f9
0000 0044 LDA    $0101   	.....  A $00 B $02 C $00 D $02 E $01 H $05 L $06 SP 05f9
0000 0047 MOV    M,A     	.....  A $00 B $02 C $00 D $02 E $01 H $05 L $06 SP 05f9
0000 0048 INX    H       	.....  A $00 B $02 C $00 D $02 E $01 H $05 L $07 SP 05f9
0000 0049 LDA    $0102   	.....  A $07 B $02 C $00 D $02 E $01 H $05 L $07 SP 05f9
0000 004c MOV    M,A     	.....  A $07 B $02 C $00 D $02 E $01 H $05 L $07 SP 05f9
0000 004d INX    H       	.....  A $07 B $02 C $00 D $02 E $01 H $05 L $08 SP 05f9
0000 004e LDA    $0103   	.....  A $02 B $02 C $00 D $02 E $01 H $05 L $08 SP 05f9
0000 0051 MOV    M,A     	.....  A $02 B $02 C $00 D $02 E $01 H $05 L $08 SP 05f9
0000 0052 INX    H       	.....  A $02 B $02 C $00 D $02 E $01 H $05 L $09 SP 05f9
0000 0053 LDA    $0104   	.....  A $01 B $02 C $00 D $02 E $01 H $05 L $09 SP 05f9
0000 0056 MOV    M,A     	.....  A $01 B $02 C $00 D $02 E $01 H $05 L $09 SP 05f9
0000 0057 INX    H       	.....  A $01 B $02 C $00 D $02 E $01 H $05 L $0a SP 05f9
0000 0058 LDA    $0105   	.....  A $00 B $02 C $00 D $02 E $01 H $05 L $0a SP 05f9
0000 005b MOV    M,A     	.....  A $00 B $02 C $00 D $02 E $01 H $05 L $0a SP 05f9
0000 005c INX    H       	.....  A $00 B $02 C $00 D $02 E $01 H $05 L $0b SP 05f9
0000 005d LDA    $0106   	.....  A $00 B $02 C $00 D $02 E $01 H $05 L $0b SP 05f9
0000 0060 MOV    M,A     	.....  A $00 B $02 C $00 D $02 E $01 H $05 L $0b SP 05f9
0000 0061 INX    H       	.....  A $00 B $02 C $00 D $02 E $01 H $05 L $0c SP 05f9
0000 0062 LDA    $0107   	.....  A $fd B $02 C $00 D $02 E $01 H $05 L $0c SP 05f9
0000 0065 MOV    M,A     	.....  A $fd B $02 C $00 D $02 E $01 H $05 L $0c SP 05f9
0000 0066 INX    H       	.....  A $fd B $02 C $00 D $02 E $01 H $05 L $0d SP 05f9
0000 0067 LDA    $0108   	.....  A $05 B $02 C $00 D $02 E $01 H $05 L $0d SP 05f9
0000 006a MOV    M,A     	.....  A $05 B $02 C $00 D $02 E $01 H $05 L $0d SP 05f9
0000 006b INX    H       	.....  A $05 B $02 C $00 D $02 E $01 H $05 L $0e SP 05f9
0000 006c LDA    $0109   	.....  A $40 B $02 C $00 D $02 E $01 H $05 L $0e SP 05f9
0000 006f MOV    M,A     	.....  A $40 B $02 C $00 D $02 E $01 H $05 L $0e SP 05f9
0000 0070 INX    H       	.....  A $40 B $02 C $00 D $02 E $01 H $05 L $0f SP 05f9
0000 0071 LDA    $010a   	.....  A $00 B $02 C $00 D $02 E $01 H $05 L $0f SP 05f9
0000 0074 MOV    M,A     	.....  A $00 B $02 C $00 D $02 E $01 H $05 L $0f SP 05f9
0000 0075 INX    H       	.....  A $00 B $02 C $00 D $02 E $01 H $05 L $10 SP 05f9
0000 0076 LDA    $010b   	.....  A $00 B $02 C $00 D $02 E $01 H $05 L $10 SP 05f9
0000 0079 MOV    M,A     	.....  A $00 B $02 C $00 D $02 E $01 H $05 L $10 SP 05f9
0000 007a INX    H       	.....  A $00 B $02 C $00 D $02 E $01 H $05 L $11 SP 05f9
0000 007b LDA    $010c   	.....  A $04 B $02 C $00 D $02 E $01 H $05 L $11 SP 05f9
0000 007e MOV    M,A     	.....  A $04 B $02 C $00 D $02 E $01 H $05 L $11 SP 05f9
0000 007f INX    H       	.....  A $04 B $02 C $00 D $02 E $01 H $05 L $12 SP 05f9
0000 0080 LDA    $010d   	.....  A $85 B $02 C $00 D $02 E $01 H $05 L $12 SP 05f9
0000 0083 MOV    M,A     	.....  A $85 B $02 C $00 D $02 E $01 H $05 L $12 SP 05f9
0000 0084 POP    H       	.....  A $85 B $02 C $00 D $02 E $01 H $02 L $00 SP 05fb
0000 0085 INR    H       	..p..  A $85 B $02 C $00 D $02 E $01 H $03 L $00 SP 05fb
0000 0086 INX    H       	..p..  A $85 B $02 C $00 D $02 E $01 H $03 L $01 SP 05fb
0000 0087 INX    H       	..p..  A $85 B $02 C $00 D $02 E $01 H $03 L $02 SP 05fb
0000 0088 INX    H       	..p..  A $85 B $02 C $00 D $02 E $01 H $03 L $03 SP 05fb
0000 0089 INX    H       	..p..  A $85 B $02 C $00 D $02 E $01 H $03 L $04 SP 05fb
0000 008a INX    H       	..p..  A $85 B $02 C $00 D $02 E $01 H $03 L $05 SP 05fb
0000 008b MOV    A,M     	..p..  A $00 B $02 C $00 D $02 E $01 H $03 L $05 SP 05fb
0000 008c INX    H       	..p..  A $00 B $02 C $00 D $02 E $01 H $03 L $06 SP 05fb
0000 008d MOV    B,M     	..p..  A $00 B $02 C $00 D $02 E $01 H $03 L $06 SP 05fb
0000 008e INX    H       	..p..  A $00 B $02 C $00 D $02 E $01 H $03 L $07 SP 05fb
0000 008f MOV    C,M     	..p..  A $00 B $02 C $1b D $02 E $01 H $03 L $07 SP 05fb
0000 0090 INX    H       	..p..  A $00 B $02 C $1b D $02 E $01 H $03 L $08 SP 05fb
0000 0091 INX    H       	..p..  A $00 B $02 C $1b D $02 E $01 H $03 L $09 SP 05fb
0000 0092 INX    H       	..p..  A $00 B $02 C $1b D $02 E $01 H $03 L $0a SP 05fb
0000 0093 INX    H       	..p..  A $00 B $02 C $1b D $02 E $01 H $03 L $0b SP 05fb
0000 0094 INX    H       	..p..  A $00 B $02 C $1b D $02 E $01 H $03 L $0c SP 05fb
0000 0095 MOV    E,M     	..p..  A $00 B $02 C $1b D $02 E $fb H $03 L $0c SP 05fb
0000 0096 INX    H       	..p..  A $00 B $02 C $1b D $02 E $fb H $03 L $0d SP 05fb
0000 0097 MOV    D,M     	..p..  A $00 B $02 C $1b D $03 E $fb H $03 L $0d SP 05fb
0000 0098 XCHG           	..p..  A $00 B $02 C $1b D $03 E $0d H $03 L $fb SP 05fb
0000 0099 SPHL           	..p..  A $00 B $02 C $1b D $03 E $0d H $03 L $fb SP 03fb
0000 009a XCHG           	..p..  A $00 B $02 C $1b D $03 E $fb H $03 L $0d SP 03fb
0000 009b DCX    H       	..p..  A $00 B $02 C $1b D $03 E $fb H $03 L $0c SP 03fb
0000 009c DCX    H       	..p..  A $00 B $02 C $1b D $03 E $fb H $03 L $0b SP 03fb
0000 009d DCX    H       	..p..  A $00 B $02 C $1b D $03 E $fb H $03 L $0a SP 03fb
0000 009e DCX    H       	..p..  A $00 B $02 C $1b D $03 E $fb H $03 L $09 SP 03fb
0000 009f MOV    E,M     	..p..  A $00 B $02 C $1b D $03 E $00 H $03 L $09 SP 03fb
0000 00a0 DCX    H       	..p..  A $00 B $02 C $1b D $03 E $00 H $03 L $08 SP 03fb
0000 00a1 MOV    D,M     	..p..  A $00 B $02 C $1b D $02 E $00 H $03 L $08 SP 03fb
0000 00a2 PUSH   D       	..p..  A $00 B $02 C $1b D $02 E $00 H $03 L $08 SP 03f9
0000 00a3 INX    H       	..p..  A $00 B $02 C $1b D $02 E $00 H $03 L $09 SP 03f9
0000 00a4 INX    H       	..p..  A $00 B $02 C $1b D $02 E $00 H $03 L $0a SP 03f9
0000 00a5 MOV    D,M     	..p..  A $00 B $02 C $1b D $03 E $00 H $03 L $0a SP 03f9
0000 00a6 INX    H       	..p..  A $00 B $02 C $1b D $03 E $00 H $03 L $0b SP 03f9
0000 00a7 MOV    E,M     	..p..  A $00 B $02 C $1b D $03 E $00 H $03 L $0b SP 03f9
0000 00a8 PUSH   D       	..p..  A $00 B $02 C $1b D $03 E $00 H $03 L $0b SP 03f7
0000 00a9 INX    H       	..p..  A $00 B $02 C $1b D $03 E $00 H $03 L $0c SP 03f7
0000 00aa INX    H       	..p..  A $00 B $02 C $1b D $03 E $00 H $03 L $0d SP 03f7
0000 00ab INX    H       	..p..  A $00 B $02 C $1b D $03 E $00 H $03 L $0e SP 03f7
0000 00ac MOV    E,M     	..p..  A $00 B $02 C $1b D $03 E $30 H $03 L $0e SP 03f7
0000 00ad INX    H       	..p..  A $00 B $02 C $1b D $03 E $30 H $03 L $0f SP 03f7
0000 00ae MOV    D,M     	..p..  A $00 B $02 C $1b D $02 E $30 H $03 L $0f SP 03f7
0000 00af PUSH   D       	..p..  A $00 B $02 C $1b D $02 E $30 H $03 L $0f SP 03f5
0000 00b0 INX    H       	..p..  A $00 B $02 C $1b D $02 E $30 H $03 L $10 SP 03f5
0000 00b1 MOV    E,M     	..p..  A $00 B $02 C $1b D $02 E $00 H $03 L $10 SP 03f5
0000 00b2 INX    H       	..p..  A $00 B $02 C $1b D $02 E $00 H $03 L $11 SP 03f5
0000 00b3 MOV    D,M     	..p..  A $00 B $02 C $1b D $00 E $00 H $03 L $11 SP 03f5
0000 00b4 PUSH   D       	..p..  A $00 B $02 C $1b D $00 E $00 H $03 L $11 SP 03f3
0000 00b5 INX    H       	..p..  A $00 B $02 C $1b D $00 E $00 H $03 L $12 SP 03f3
0000 00b6 MOV    L,M     	..p..  A $00 B $02 C $1b D $00 E $00 H $03 L $81 SP 03f3
0000 00b7 MOV    H,A     	..p..  A $00 B $02 C $1b D $00 E $00 H $00 L $81 SP 03f3
0000 00b8 PUSH   H       	..p..  A $00 B $02 C $1b D $00 E $00 H $00 L $81 SP 03f1
0000 00b9 POP    PSW     	.s.c.  A $00 B $02 C $1b D $00 E $00 H $00 L $81 SP 03f3
0000 00ba POP    D       	.s.c.  A $00 B $02 C $1b D $00 E $00 H $00 L $81 SP 03f5
0000 00bb POP    H       	.s.c.  A $00 B $02 C $1b D $00 E $00 H $02 L $30 SP 03f7
0000 00bc EI             	.s.c.  A $00 B $02 C $1b D $00 E $00 H $02 L $30 SP 03f7
0000 00bd PCHL           	.s.c.  A $00 B $02 C $1b D $02 E $00 H $03 L $00 SP 03fb
0000 0230 INR    D       	..pc.  A $00 B $02 C $1b D $03 E $00 H $03 L $00 SP 03fb
0000 0231 LDAX   D       	..pc.  A $04 B $02 C $1b D $03 E $00 H $03 L $00 SP 03fb
0000 0232 MOV    E,A     	..pc.  A $04 B $02 C $1b D $03 E $04 H $03 L $00 SP 03fb
0000 0233 DCR    D       	...c.  A $04 B $02 C $1b D $02 E $04 H $03 L $00 SP 03fb
0000 0234 CMP    D       	.....  A $04 B $02 C $1b D $02 E $04 H $03 L $00 SP 03fb
0000 0235 JNZ    $0230   	.....  A $04 B $02 C $1b D $02 E $04 H $03 L $00 SP 03fb
0000 0230 INR    D       	..p..  A $04 B $02 C $1b D $03 E $04 H $03 L $00 SP 03fb
0000 0231 LDAX   D       	..p..  A $00 B $02 C $1b D $03 E $04 H $03 L $00 SP 03fb
0000 0232 MOV    E,A     	..p..  A $00 B $02 C $1b D $03 E $00 H $03 L $00 SP 03fb
0000 0233 DCR    D       	.....  A $00 B $02 C $1b D $02 E $00 H $03 L $00 SP 03fb
0000 0234 CMP    D       	.s.c.  A $00 B $02 C $1b D $02 E $00 H $03 L $00 SP 03fb
0000 0235 JNZ    $0230   	.s.c.  A $00 B $02 C $1b D $02 E $00 H $03 L $00 SP 03fb
Interrupt: 81
	.s.c.  A $00 B $02 C $1b D $02 E $00 H $03 L $00 SP 03f9
0000 0028 DI             	.s.c.  A $00 B $02 C $1b D $02 E $00 H $03 L $00 SP 03f9
0000 0029 LXI    H,#$010a	.s.c.  A $00 B $02 C $1b D $02 E $00 H $01 L $0a SP 03f9
0000 002c MOV    B,M     	.s.c.  A $00 B $02 C $1b D $02 E $00 H $01 L $0a SP 03f9
0000 002d LDA    $010c   	.s.c.  A $00 B $02 C $1b D $02 E $00 H $01 L $0a SP 03f9
0000 0030 ADD    B       	.....  A $02 B $02 C $1b D $02 E $00 H $01 L $0a SP 03f9
0000 0031 MOV    B,A     	.....  A $02 B $02 C $1b D $02 E $00 H $01 L $0a SP 03f9
0000 0032 MVI    C,#$ff  	.....  A $02 B $02 C $ff D $02 E $00 H $01 L $0a SP 03f9
0000 0034 INX    B       	.....  A $02 B $03 C $00 D $02 E $00 H $01 L $0a SP 03f9
0000 0035 MOV    H,B     	.....  A $02 B $03 C $00 D $02 E $00 H $03 L $0a SP 03f9
0000 0036 MOV    L,C     	.....  A $02 B $03 C $00 D $02 E $00 H $03 L $00 SP 03f9
0000 0037 MOV    B,M     	.....  A $02 B $04 C $00 D $02 E $00 H $03 L $00 SP 03f9
0000 0038 INX    H       	.....  A $02 B $04 C $00 D $02 E $00 H $03 L $01 SP 03f9
0000 0039 MOV    C,M     	.....  A $02 B $04 C $00 D $02 E $00 H $03 L $01 SP 03f9
0000 003a PUSH   B       	.....  A $02 B $04 C $00 D $02 E $00 H $03 L $01 SP 03f7
0000 003b INX    H       	.....  A $02 B $04 C $00 D $02 E $00 H $03 L $02 SP 03f7
0000 003c INX    H       	.....  A $02 B $04 C $00 D $02 E $00 H $03 L $03 SP 03f7
0000 003d INX    H       	.....  A $02 B $04 C $00 D $02 E $00 H $03 L $04 SP 03f7
0000 003e INX    H       	.....  A $02 B $04 C $00 D $02 E $00 H $03 L $05 SP 03f7
0000 003f LDA    $0100   	.....  A $00 B $04 C $00 D $02 E $00 H $03 L $05 SP 03f7
0000 0042 MOV    M,A     	.....  A $00 B $04 C $00 D $02 E $00 H $03 L $05 SP 03f7
0000 0043 INX    H       	.....  A $00 B $04 C $00 D $02 E $00 H $03 L $06 SP 03f7
0000 0044 LDA    $0101   	.....  A $02 B $04 C $00 D $02 E $00 H $03 L $06 SP 03f7
0000 0047 MOV    M,A     	.....  A $02 B $04 C $00 D $02 E $00 H $03 L $06 SP 03f7
0000 0048 INX    H       	.....  A $02 B $04 C $00 D $02 E $00 H $03 L $07 SP 03f7
0000 0049 LDA    $0102   	.....  A $1b B $04 C $00 D $02 E $00 H $03 L $07 SP 03f7
0000 004c MOV    M,A     	.....  A $1b B $04 C $00 D $02 E $00 H $03 L $07 SP 03f7
0000 004d INX    H       	.....  A $1b B $04 C $00 D $02 E $00 H $03 L $08 SP 03f7
0000 004e LDA    $0103   	.....  A $02 B $04 C $00 D $02 E $00 H $03 L $08 SP 03f7
0000 0051 MOV    M,A     	.....  A $02 B $04 C $00 D $02 E $00 H $03 L $08 SP 03f7
0000 0052 INX    H       	.....  A $02 B $04 C $00 D $02 E $00 H $03 L $09 SP 03f7
0000 0053 LDA    $0104   	.....  A $00 B $04 C $00 D $02 E $00 H $03 L $09 SP 03f7
0000 0056 MOV    M,A     	.....  A $00 B $04 C $00 D $02 E $00 H $03 L $09 SP 03f7
0000 0057 INX    H       	.....  A $00 B $04 C $00 D $02 E $00 H $03 L $0a SP 03f7
0000 0058 LDA    $0105   	.....  A $03 B $04 C $00 D $02 E $00 H $03 L $0a SP 03f7
0000 005b MOV    M,A     	.....  A $03 B $04 C $00 D $02 E $00 H $03 L $0a SP 03f7
0000 005c INX    H       	.....  A $03 B $04 C $00 D $02 E $00 H $03 L $0b SP 03f7
0000 005d LDA    $0106   	.....  A $00 B $04 C $00 D $02 E $00 H $03 L $0b SP 03f7
0000 0060 MOV    M,A     	.....  A $00 B $04 C $00 D $02 E $00 H $03 L $0b SP 03f7
0000 0061 INX    H       	.....  A $00 B $04 C $00 D $02 E $00 H $03 L $0c SP 03f7
0000 0062 LDA    $0107   	.....  A $fb B $04 C $00 D $02 E $00 H $03 L $0c SP 03f7
0000 0065 MOV    M,A     	.....  A $fb B $04 C $00 D $02 E $00 H $03 L $0c SP 03f7
0000 0066 INX    H       	.....  A $fb B $04 C $00 D $02 E $00 H $03 L $0d SP 03f7
0000 0067 LDA    $0108   	.....  A $03 B $04 C $00 D $02 E $00 H $03 L $0d SP 03f7
0000 006a MOV    M,A     	.....  A $03 B $04 C $00 D $02 E $00 H $03 L $0d SP 03f7
0000 006b INX    H       	.....  A $03 B $04 C $00 D $02 E $00 H $03 L $0e SP 03f7
0000 006c LDA    $0109   	.....  A $30 B $04 C $00 D $02 E $00 H $03 L $0e SP 03f7
0000 006f MOV    M,A     	.....  A $30 B $04 C $00 D $02 E $00 H $03 L $0e SP 03f7
0000 0070 INX    H       	.....  A $30 B $04 C $00 D $02 E $00 H $03 L $0f SP 03f7
0000 0071 LDA    $010a   	.....  A $02 B $04 C $00 D $02 E $00 H $03 L $0f SP 03f7
0000 0074 MOV    M,A     	.....  A $02 B $04 C $00 D $02 E $00 H $03 L $0f SP 03f7
0000 0075 INX    H       	.....  A $02 B $04 C $00 D $02 E $00 H $03 L $10 SP 03f7
0000 0076 LDA    $010b   	.....  A $00 B $04 C $00 D $02 E $00 H $03 L $10 SP 03f7
0000 0079 MOV    M,A     	.....  A $00 B $04 C $00 D $02 E $00 H $03 L $10 SP 03f7
0000 007a INX    H       	.....  A $00 B $04 C $00 D $02 E $00 H $03 L $11 SP 03f7
0000 007b LDA    $010c   	.....  A $00 B $04 C $00 D $02 E $00 H $03 L $11 SP 03f7
0000 007e MOV    M,A     	.....  A $00 B $04 C $00 D $02 E $00 H $03 L $11 SP 03f7
0000 007f INX    H       	.....  A $00 B $04 C $00 D $02 E $00 H $03 L $12 SP 03f7
0000 0080 LDA    $010d   	.....  A $81 B $04 C $00 D $02 E $00 H $03 L $12 SP 03f7
0000 0083 MOV    M,A     	.....  A $81 B $04 C $00 D $02 E $00 H $03 L $12 SP 03f7
0000 0084 POP    H       	.....  A $81 B $04 C $00 D $02 E $00 H $04 L $00 SP 03f9
0000 0085 INR    H       	..p..  A $81 B $04 C $00 D $02 E $00 H $05 L $00 SP 03f9
0000 0086 INX    H       	..p..  A $81 B $04 C $00 D $02 E $00 H $05 L $01 SP 03f9
0000 0087 INX    H       	..p..  A $81 B $04 C $00 D $02 E $00 H $05 L $02 SP 03f9
0000 0088 INX    H       	..p..  A $81 B $04 C $00 D $02 E $00 H $05 L $03 SP 03f9
0000 0089 INX    H       	..p..  A $81 B $04 C $00 D $02 E $00 H $05 L $04 SP 03f9
0000 008a INX    H       	..p..  A $81 B $04 C $00 D $02 E $00 H $05 L $05 SP 03f9
0000 008b MOV    A,M     	..p..  A $01 B $04 C $00 D $02 E $00 H $05 L $05 SP 03f9
0000 008c INX    H       	..p..  A $01 B $04 C $00 D $02 E $00 H $05 L $06 SP 03f9
0000 008d MOV    B,M     	..p..  A $01 B $00 C $00 D $02 E $00 H $05 L $06 SP 03f9
0000 008e INX    H       	..p..  A $01 B $00 C $00 D $02 E $00 H $05 L $07 SP 03f9
0000 008f MOV    C,M     	..p..  A $01 B $00 C $07 D $02 E $00 H $05 L $07 SP 03f9
0000 0090 INX    H       	..p..  A $01 B $00 C $07 D $02 E $00 H $05 L $08 SP 03f9
0000 0091 INX    H       	..p..  A $01 B $00 C $07 D $02 E $00 H $05 L $09 SP 03f9
0000 0092 INX    H       	..p..  A $01 B $00 C $07 D $02 E $00 H $05 L $0a SP 03f9
0000 0093 INX    H       	..p..  A $01 B $00 C $07 D $02 E $00 H $05 L $0b SP 03f9
0000 0094 INX    H       	..p..  A $01 B $00 C $07 D $02 E $00 H $05 L $0c SP 03f9
0000 0095 MOV    E,M     	..p..  A $01 B $00 C $07 D $02 E $fd H $05 L $0c SP 03f9
0000 0096 INX    H       	..p..  A $01 B $00 C $07 D $02 E $fd H $05 L $0d SP 03f9
0000 0097 MOV    D,M     	..p..  A $01 B $00 C $07 D $05 E $fd H $05 L $0d SP 03f9
0000 0098 XCHG           	..p..  A $01 B $00 C $07 D $05 E $0d H $05 L $fd SP 03f9
0000 0099 SPHL           	..p..  A $01 B $00 C $07 D $05 E $0d H $05 L $fd SP 05fd
0000 009a XCHG           	..p..  A $01 B $00 C $07 D $05 E $fd H $05 L $0d SP 05fd
0000 009b DCX    H       	..p..  A $01 B $00 C $07 D $05 E $fd H $05 L $0c SP 05fd
0000 009c DCX    H       	..p..  A $01 B $00 C $07 D $05 E $fd H $05 L $0b SP 05fd
0000 009d DCX    H       	..p..  A $01 B $00 C $07 D $05 E $fd H $05 L $0a SP 05fd
0000 009e DCX    H       	..p..  A $01 B $00 C $07 D $05 E $fd H $05 L $09 SP 05fd
0000 009f MOV    E,M     	..p..  A $01 B $00 C $07 D $05 E $01 H $05 L $09 SP 05fd
0000 00a0 DCX    H       	..p..  A $01 B $00 C $07 D $05 E $01 H $05 L $08 SP 05fd
0000 00a1 MOV    D,M     	..p..  A $01 B $00 C $07 D $02 E $01 H $05 L $08 SP 05fd
0000 00a2 PUSH   D       	..p..  A $01 B $00 C $07 D $02 E $01 H $05 L $08 SP 05fb
0000 00a3 INX    H       	..p..  A $01 B $00 C $07 D $02 E $01 H $05 L $09 SP 05fb
0000 00a4 INX    H       	..p..  A $01 B $00 C $07 D $02 E $01 H $05 L $0a SP 05fb
0000 00a5 MOV    D,M     	..p..  A $01 B $00 C $07 D $00 E $01 H $05 L $0a SP 05fb
0000 00a6 INX    H       	..p..  A $01 B $00 C $07 D $00 E $01 H $05 L $0b SP 05fb
0000 00a7 MOV    E,M     	..p..  A $01 B $00 C $07 D $00 E $00 H $05 L $0b SP 05fb
0000 00a8 PUSH   D       	..p..  A $01 B $00 C $07 D $00 E $00 H $05 L $0b SP 05f9
0000 00a9 INX    H       	..p..  A $01 B $00 C $07 D $00 E $00 H $05 L $0c SP 05f9
0000 00aa INX    H       	..p..  A $01 B $00 C $07 D $00 E $00 H $05 L $0d SP 05f9
0000 00ab INX    H       	..p..  A $01 B $00 C $07 D $00 E $00 H $05 L $0e SP 05f9
0000 00ac MOV    E,M     	..p..  A $01 B $00 C $07 D $00 E $40 H $05 L $0e SP 05f9
0000 00ad INX    H       	..p..  A $01 B $00 C $07 D $00 E $40 H $05 L $0f SP 05f9
0000 00ae MOV    D,M     	..p..  A $01 B $00 C $07 D $00 E $40 H $05 L $0f SP 05f9
0000 00af PUSH   D       	..p..  A $01 B $00 C $07 D $00 E $40 H $05 L $0f SP 05f7
0000 00b0 INX    H       	..p..  A $01 B $00 C $07 D $00 E $40 H $05 L $10 SP 05f7
0000 00b1 MOV    E,M     	..p..  A $01 B $00 C $07 D $00 E $00 H $05 L $10 SP 05f7
0000 00b2 INX    H       	..p..  A $01 B $00 C $07 D $00 E $00 H $05 L $11 SP 05f7
0000 00b3 MOV    D,M     	..p..  A $01 B $00 C $07 D $04 E $00 H $05 L $11 SP 05f7
0000 00b4 PUSH   D       	..p..  A $01 B $00 C $07 D $04 E $00 H $05 L $11 SP 05f5
0000 00b5 INX    H       	..p..  A $01 B $00 C $07 D $04 E $00 H $05 L $12 SP 05f5
0000 00b6 MOV    L,M     	..p..  A $01 B $00 C $07 D $04 E $00 H $05 L $85 SP 05f5
0000 00b7 MOV    H,A     	..p..  A $01 B $00 C $07 D $04 E $00 H $01 L $85 SP 05f5
0000 00b8 PUSH   H       	..p..  A $01 B $00 C $07 D $04 E $00 H $01 L $85 SP 05f3
0000 00b9 POP    PSW     	.spc.  A $01 B $00 C $07 D $04 E $00 H $01 L $85 SP 05f5
0000 00ba POP    D       	.spc.  A $01 B $00 C $07 D $04 E $00 H $01 L $85 SP 05f7
0000 00bb POP    H       	.spc.  A $01 B $00 C $07 D $04 E $00 H $00 L $40 SP 05f9
0000 00bc EI             	.spc.  A $01 B $00 C $07 D $04 E $00 H $00 L $40 SP 05f9
0000 00bd PCHL           	.spc.  A $01 B $00 C $07 D $02 E $01 H $00 L $00 SP 05fd
0400 0040 POP    B       	.spc.  A $01 B $01 C $01 D $02 E $01 H $00 L $00 SP 05ff
0400 0041 INR    C       	...c.  A $01 B $01 C $02 D $02 E $01 H $00 L $00 SP 05ff
0400 0042 MOV    A,C     	...c.  A $02 B $01 C $02 D $02 E $01 H $00 L $00 SP 05ff
0400 0043 SUB    D       	z.p..  A $00 B $01 C $02 D $02 E $01 H $00 L $00 SP 05ff
0400 0044 JZ     $005a   	z.p..  A $00 B $01 C $02 D $02 E $01 H $00 L $00 SP 05ff
0400 005a LXI    B,#$000b	z.p..  A $00 B $00 C $0b D $02 E $01 H $00 L $00 SP 05ff
0400 005d MVI    A,#$01  	z.p..  A $01 B $00 C $0b D $02 E $01 H $00 L $00 SP 05ff
0400 005f CALL   $0007   	z.p..  A $01 B $00 C $0b D $02 E $01 H $00 L $00 SP 05fd

Caller pc: 98
0400 0062 HLT            	z.p..  A $01 B $00 C $0b D $02 E $01 H $00 L $00 SP 05ff
Interrupt: 84
